; Listing generated by Microsoft (R) Optimizing Compiler Version 19.00.24215.1 

	TITLE	D:\Study\数据结构与算法综合实验\连连看游戏\LLKPro17.6.18\Lianliankan\DlgProxy.cpp
	.686P
	.XMM
	include listing.inc
	.model	flat

INCLUDELIB MSVCRTD
INCLUDELIB OLDNAMES

PUBLIC	?guid@CLianliankanDlgAutoProxy@@2U_GUID@@B	; CLianliankanDlgAutoProxy::guid
PUBLIC	?_dispatchEntries@CLianliankanDlgAutoProxy@@0QBUAFX_DISPMAP_ENTRY@@B ; CLianliankanDlgAutoProxy::_dispatchEntries
PUBLIC	?_dispatchEntryCount@CLianliankanDlgAutoProxy@@0IA ; CLianliankanDlgAutoProxy::_dispatchEntryCount
PUBLIC	?_dwStockPropMask@CLianliankanDlgAutoProxy@@0KA	; CLianliankanDlgAutoProxy::_dwStockPropMask
PUBLIC	?_interfaceEntries@CLianliankanDlgAutoProxy@@0QBUAFX_INTERFACEMAP_ENTRY@@B ; CLianliankanDlgAutoProxy::_interfaceEntries
PUBLIC	??_C@_1DA@OAHKEIGH@?$AAL?$AAi?$AAa?$AAn?$AAl?$AAi?$AAa?$AAn?$AAk?$AAa?$AAn?$AA?4?$AAA?$AAp?$AAp?$AAl?$AAi?$AAc?$AAa?$AAt?$AAi?$AAo?$AAn?$AA?$AA@ ; `string'
PUBLIC	?__LINE__Var@?0??__autoclassinit2@COleObjectFactory@@QAEXI@Z@4JA ; `COleObjectFactory::__autoclassinit2'::`1'::__LINE__Var
EXTRN	?GetThisMessageMap@CCmdTarget@@KGPBUAFX_MSGMAP@@XZ:PROC ; CCmdTarget::GetThisMessageMap
;	COMDAT ?__LINE__Var@?0??__autoclassinit2@COleObjectFactory@@QAEXI@Z@4JA
_DATA	SEGMENT
?__LINE__Var@?0??__autoclassinit2@COleObjectFactory@@QAEXI@Z@4JA DD 053H ; `COleObjectFactory::__autoclassinit2'::`1'::__LINE__Var
_DATA	ENDS
;	COMDAT ??_C@_1DA@OAHKEIGH@?$AAL?$AAi?$AAa?$AAn?$AAl?$AAi?$AAa?$AAn?$AAk?$AAa?$AAn?$AA?4?$AAA?$AAp?$AAp?$AAl?$AAi?$AAc?$AAa?$AAt?$AAi?$AAo?$AAn?$AA?$AA@
CONST	SEGMENT
??_C@_1DA@OAHKEIGH@?$AAL?$AAi?$AAa?$AAn?$AAl?$AAi?$AAa?$AAn?$AAk?$AAa?$AAn?$AA?4?$AAA?$AAp?$AAp?$AAl?$AAi?$AAc?$AAa?$AAt?$AAi?$AAo?$AAn?$AA?$AA@ DB 'L'
	DB	00H, 'i', 00H, 'a', 00H, 'n', 00H, 'l', 00H, 'i', 00H, 'a', 00H
	DB	'n', 00H, 'k', 00H, 'a', 00H, 'n', 00H, '.', 00H, 'A', 00H, 'p'
	DB	00H, 'p', 00H, 'l', 00H, 'i', 00H, 'c', 00H, 'a', 00H, 't', 00H
	DB	'i', 00H, 'o', 00H, 'n', 00H, 00H, 00H	; `string'
CONST	ENDS
;	COMDAT ?_interfaceEntries@CLianliankanDlgAutoProxy@@0QBUAFX_INTERFACEMAP_ENTRY@@B
CONST	SEGMENT
?_interfaceEntries@CLianliankanDlgAutoProxy@@0QBUAFX_INTERFACEMAP_ENTRY@@B DD FLAT:?IID_ILianliankan@@3U_GUID@@B ; CLianliankanDlgAutoProxy::_interfaceEntries
	DD	010H
	DD	00H
	DD	0ffffffffH
CONST	ENDS
;	COMDAT ?_dwStockPropMask@CLianliankanDlgAutoProxy@@0KA
_DATA	SEGMENT
?_dwStockPropMask@CLianliankanDlgAutoProxy@@0KA DD 0ffffffffH ; CLianliankanDlgAutoProxy::_dwStockPropMask
_DATA	ENDS
;	COMDAT ?_dispatchEntryCount@CLianliankanDlgAutoProxy@@0IA
_DATA	SEGMENT
?_dispatchEntryCount@CLianliankanDlgAutoProxy@@0IA DD 0ffffffffH ; CLianliankanDlgAutoProxy::_dispatchEntryCount
_DATA	ENDS
;	COMDAT ?_dispatchEntries@CLianliankanDlgAutoProxy@@0QBUAFX_DISPMAP_ENTRY@@B
CONST	SEGMENT
?_dispatchEntries@CLianliankanDlgAutoProxy@@0QBUAFX_DISPMAP_ENTRY@@B DD 00H ; CLianliankanDlgAutoProxy::_dispatchEntries
	DD	0ffffffffH
	DD	00H
	DW	018H
	ORG $+2
	DD	00H
	DD	00H
	DD	0ffffffffH
	DD	00H
CONST	ENDS
CONST	SEGMENT
?guid@CLianliankanDlgAutoProxy@@2U_GUID@@B DD 0bdc3a4daH ; CLianliankanDlgAutoProxy::guid
	DW	0e97eH
	DW	049f0H
	DB	091H
	DB	084H
	DB	0f8H
	DB	0a3H
	DB	086H
	DB	0cfH
	DB	0bfH
	DB	052H
?_messageEntries@?1??GetThisMessageMap@CLianliankanDlgAutoProxy@@KGPBUAFX_MSGMAP@@XZ@4QBUAFX_MSGMAP_ENTRY@@B DD 00H ; `CLianliankanDlgAutoProxy::GetThisMessageMap'::`2'::_messageEntries
	DD	00H
	DD	00H
	DD	00H
	DD	00H
	DD	00H
?messageMap@?1??GetThisMessageMap@CLianliankanDlgAutoProxy@@KGPBUAFX_MSGMAP@@XZ@4U3@B DD FLAT:?GetThisMessageMap@CCmdTarget@@KGPBUAFX_MSGMAP@@XZ ; `CLianliankanDlgAutoProxy::GetThisMessageMap'::`2'::messageMap
	DD	FLAT:?_messageEntries@?1??GetThisMessageMap@CLianliankanDlgAutoProxy@@KGPBUAFX_MSGMAP@@XZ@4QBUAFX_MSGMAP_ENTRY@@B
?IID_ILianliankan@@3U_GUID@@B DD 02ffe508fH		; IID_ILianliankan
	DW	046e5H
	DW	049acH
	DB	0afH
	DB	0ceH
	DB	024H
	DB	05cH
	DB	024H
	DB	081H
	DB	02fH
	DB	075H
CONST	ENDS
PUBLIC	?__empty_global_delete@@YAXPAX@Z		; __empty_global_delete
PUBLIC	?__empty_global_delete@@YAXPAXI@Z		; __empty_global_delete
PUBLIC	?_GetBaseClass@CLianliankanDlgAutoProxy@@KGPAUCRuntimeClass@@XZ ; CLianliankanDlgAutoProxy::_GetBaseClass
PUBLIC	?GetThisClass@CLianliankanDlgAutoProxy@@SGPAUCRuntimeClass@@XZ ; CLianliankanDlgAutoProxy::GetThisClass
PUBLIC	?GetRuntimeClass@CLianliankanDlgAutoProxy@@UBEPAUCRuntimeClass@@XZ ; CLianliankanDlgAutoProxy::GetRuntimeClass
PUBLIC	?CreateObject@CLianliankanDlgAutoProxy@@SGPAVCObject@@XZ ; CLianliankanDlgAutoProxy::CreateObject
PUBLIC	??0CLianliankanDlgAutoProxy@@QAE@XZ		; CLianliankanDlgAutoProxy::CLianliankanDlgAutoProxy
PUBLIC	?OnFinalRelease@CLianliankanDlgAutoProxy@@UAEXXZ ; CLianliankanDlgAutoProxy::OnFinalRelease
PUBLIC	??1CLianliankanDlgAutoProxy@@MAE@XZ		; CLianliankanDlgAutoProxy::~CLianliankanDlgAutoProxy
PUBLIC	?GetThisMessageMap@CLianliankanDlgAutoProxy@@KGPBUAFX_MSGMAP@@XZ ; CLianliankanDlgAutoProxy::GetThisMessageMap
PUBLIC	?GetMessageMap@CLianliankanDlgAutoProxy@@MBEPBUAFX_MSGMAP@@XZ ; CLianliankanDlgAutoProxy::GetMessageMap
PUBLIC	?GetThisDispatchMap@CLianliankanDlgAutoProxy@@KGPBUAFX_DISPMAP@@XZ ; CLianliankanDlgAutoProxy::GetThisDispatchMap
PUBLIC	?GetDispatchMap@CLianliankanDlgAutoProxy@@MBEPBUAFX_DISPMAP@@XZ ; CLianliankanDlgAutoProxy::GetDispatchMap
PUBLIC	?GetThisInterfaceMap@CLianliankanDlgAutoProxy@@KGPBUAFX_INTERFACEMAP@@XZ ; CLianliankanDlgAutoProxy::GetThisInterfaceMap
PUBLIC	?GetInterfaceMap@CLianliankanDlgAutoProxy@@MBEPBUAFX_INTERFACEMAP@@XZ ; CLianliankanDlgAutoProxy::GetInterfaceMap
PUBLIC	??_GCLianliankanDlgAutoProxy@@MAEPAXI@Z		; CLianliankanDlgAutoProxy::`scalar deleting destructor'
PUBLIC	??_R1A@?0A@EA@CObject@@8			; CObject::`RTTI Base Class Descriptor at (0,-1,0,64)'
PUBLIC	??_R0?AVCObject@@@8				; CObject `RTTI Type Descriptor'
PUBLIC	??_R3CObject@@8					; CObject::`RTTI Class Hierarchy Descriptor'
PUBLIC	??_R2CObject@@8					; CObject::`RTTI Base Class Array'
PUBLIC	??_R1A@?0A@EA@CCmdTarget@@8			; CCmdTarget::`RTTI Base Class Descriptor at (0,-1,0,64)'
PUBLIC	??_R0?AVCCmdTarget@@@8				; CCmdTarget `RTTI Type Descriptor'
PUBLIC	??_R3CCmdTarget@@8				; CCmdTarget::`RTTI Class Hierarchy Descriptor'
PUBLIC	??_R2CCmdTarget@@8				; CCmdTarget::`RTTI Base Class Array'
PUBLIC	?classCLianliankanDlgAutoProxy@CLianliankanDlgAutoProxy@@2UCRuntimeClass@@B ; CLianliankanDlgAutoProxy::classCLianliankanDlgAutoProxy
PUBLIC	?factory@CLianliankanDlgAutoProxy@@2VCOleObjectFactory@@A ; CLianliankanDlgAutoProxy::factory
PUBLIC	?dispatchMap@CLianliankanDlgAutoProxy@@1UAFX_DISPMAP@@B ; CLianliankanDlgAutoProxy::dispatchMap
PUBLIC	?interfaceMap@CLianliankanDlgAutoProxy@@1UAFX_INTERFACEMAP@@B ; CLianliankanDlgAutoProxy::interfaceMap
PUBLIC	??_7CLianliankanDlgAutoProxy@@6B@		; CLianliankanDlgAutoProxy::`vftable'
PUBLIC	??_C@_0FC@BLCIEOFF@d?3?2study?2?J?$PN?$LO?$NN?$LN?a?$LJ?$LJ?S?k?K?c?$LH?$KI?W?$NL?$LK?O?J?$LF?Q?i?2@ ; `string'
PUBLIC	??_C@_0BJ@CPIMMHBI@CLianliankanDlgAutoProxy?$AA@ ; `string'
PUBLIC	?__LINE__Var@?0???0CLianliankanDlgAutoProxy@@QAE@XZ@4JA ; `CLianliankanDlgAutoProxy::CLianliankanDlgAutoProxy'::`1'::__LINE__Var
PUBLIC	??_R4CLianliankanDlgAutoProxy@@6B@		; CLianliankanDlgAutoProxy::`RTTI Complete Object Locator'
PUBLIC	??_R0?AVCLianliankanDlgAutoProxy@@@8		; CLianliankanDlgAutoProxy `RTTI Type Descriptor'
PUBLIC	??_R3CLianliankanDlgAutoProxy@@8		; CLianliankanDlgAutoProxy::`RTTI Class Hierarchy Descriptor'
PUBLIC	??_R2CLianliankanDlgAutoProxy@@8		; CLianliankanDlgAutoProxy::`RTTI Base Class Array'
PUBLIC	??_R1A@?0A@EA@CLianliankanDlgAutoProxy@@8	; CLianliankanDlgAutoProxy::`RTTI Base Class Descriptor at (0,-1,0,64)'
EXTRN	?__global_delete@@YAXPAXI@Z:PROC		; __global_delete
EXTRN	_atexit:PROC
EXTRN	___std_terminate:PROC
EXTRN	__imp__PeekMessageW@20:PROC
EXTRN	__imp__PostQuitMessage@4:PROC
EXTRN	__imp___CrtDbgReport:PROC
EXTRN	?AfxAssertValidObject@@YGXPBVCObject@@PBDH@Z:PROC ; AfxAssertValidObject
EXTRN	??3CObject@@SGXPAX@Z:PROC			; CObject::operator delete
EXTRN	??2CObject@@SGPAXIPBDH@Z:PROC			; CObject::operator new
EXTRN	??3CObject@@SGXPAXPBDH@Z:PROC			; CObject::operator delete
EXTRN	?IsKindOf@CObject@@QBEHPBUCRuntimeClass@@@Z:PROC ; CObject::IsKindOf
EXTRN	?Serialize@CObject@@UAEXAAVCArchive@@@Z:PROC	; CObject::Serialize
EXTRN	?AfxOleLockApp@@YGXXZ:PROC			; AfxOleLockApp
EXTRN	?AfxOleUnlockApp@@YGXXZ:PROC			; AfxOleUnlockApp
EXTRN	?GetThisClass@CCmdTarget@@SGPAUCRuntimeClass@@XZ:PROC ; CCmdTarget::GetThisClass
EXTRN	??0CCmdTarget@@QAE@XZ:PROC			; CCmdTarget::CCmdTarget
EXTRN	?EnableAutomation@CCmdTarget@@QAEXXZ:PROC	; CCmdTarget::EnableAutomation
EXTRN	?OnCmdMsg@CCmdTarget@@UAEHIHPAXPAUAFX_CMDHANDLERINFO@@@Z:PROC ; CCmdTarget::OnCmdMsg
EXTRN	?OnFinalRelease@CCmdTarget@@UAEXXZ:PROC		; CCmdTarget::OnFinalRelease
EXTRN	?IsInvokeAllowed@CCmdTarget@@UAEHJ@Z:PROC	; CCmdTarget::IsInvokeAllowed
EXTRN	?GetDispatchIID@CCmdTarget@@UAEHPAU_GUID@@@Z:PROC ; CCmdTarget::GetDispatchIID
EXTRN	?GetTypeInfoCount@CCmdTarget@@UAEIXZ:PROC	; CCmdTarget::GetTypeInfoCount
EXTRN	?GetTypeLibCache@CCmdTarget@@UAEPAVCTypeLibCache@@XZ:PROC ; CCmdTarget::GetTypeLibCache
EXTRN	?GetTypeLib@CCmdTarget@@UAEJKPAPAUITypeLib@@@Z:PROC ; CCmdTarget::GetTypeLib
EXTRN	??1CCmdTarget@@UAE@XZ:PROC			; CCmdTarget::~CCmdTarget
EXTRN	?Dump@CCmdTarget@@UBEXAAVCDumpContext@@@Z:PROC	; CCmdTarget::Dump
EXTRN	?AssertValid@CCmdTarget@@UBEXXZ:PROC		; CCmdTarget::AssertValid
EXTRN	?GetCommandMap@CCmdTarget@@MBEPBUAFX_OLECMDMAP@@XZ:PROC ; CCmdTarget::GetCommandMap
EXTRN	?GetThisDispatchMap@CCmdTarget@@KGPBUAFX_DISPMAP@@XZ:PROC ; CCmdTarget::GetThisDispatchMap
EXTRN	?GetConnectionMap@CCmdTarget@@MBEPBUAFX_CONNECTIONMAP@@XZ:PROC ; CCmdTarget::GetConnectionMap
EXTRN	?GetThisInterfaceMap@CCmdTarget@@KGPBUAFX_INTERFACEMAP@@XZ:PROC ; CCmdTarget::GetThisInterfaceMap
EXTRN	?GetEventSinkMap@CCmdTarget@@MBEPBUAFX_EVENTSINKMAP@@XZ:PROC ; CCmdTarget::GetEventSinkMap
EXTRN	?OnCreateAggregates@CCmdTarget@@UAEHXZ:PROC	; CCmdTarget::OnCreateAggregates
EXTRN	?GetInterfaceHook@CCmdTarget@@UAEPAUIUnknown@@PBX@Z:PROC ; CCmdTarget::GetInterfaceHook
EXTRN	?GetExtraConnectionPoints@CCmdTarget@@MAEHPAVCPtrArray@@@Z:PROC ; CCmdTarget::GetExtraConnectionPoints
EXTRN	?GetConnectionHook@CCmdTarget@@MAEPAUIConnectionPoint@@ABU_GUID@@@Z:PROC ; CCmdTarget::GetConnectionHook
EXTRN	?AfxGetApp@@YGPAVCWinApp@@XZ:PROC		; AfxGetApp
EXTRN	??0COleObjectFactory@@QAE@ABU_GUID@@PAUCRuntimeClass@@HPB_W@Z:PROC ; COleObjectFactory::COleObjectFactory
EXTRN	??1COleObjectFactory@@UAE@XZ:PROC		; COleObjectFactory::~COleObjectFactory
EXTRN	??_ECLianliankanDlgAutoProxy@@MAEPAXI@Z:PROC	; CLianliankanDlgAutoProxy::`vector deleting destructor'
EXTRN	?GetThisClass@CLLKDlg@@SGPAUCRuntimeClass@@XZ:PROC ; CLLKDlg::GetThisClass
EXTRN	@__security_check_cookie@4:PROC
EXTRN	___CxxFrameHandler3:PROC
EXTRN	_memset:PROC
EXTRN	??_7type_info@@6B@:QWORD			; type_info::`vftable'
EXTRN	___security_cookie:DWORD
_BSS	SEGMENT
?factory@CLianliankanDlgAutoProxy@@2VCOleObjectFactory@@A DB 050H DUP (?) ; CLianliankanDlgAutoProxy::factory
_BSS	ENDS
CRT$XCU	SEGMENT
??factory$initializer$@CLianliankanDlgAutoProxy@@2P6AXXZA@@3P6AXXZA DD FLAT:??__E?factory@CLianliankanDlgAutoProxy@@2VCOleObjectFactory@@A@@YAXXZ ; ??factory$initializer$@CLianliankanDlgAutoProxy@@2P6AXXZA@@3P6AXXZA
CRT$XCU	ENDS
;	COMDAT ??_R1A@?0A@EA@CLianliankanDlgAutoProxy@@8
rdata$r	SEGMENT
??_R1A@?0A@EA@CLianliankanDlgAutoProxy@@8 DD FLAT:??_R0?AVCLianliankanDlgAutoProxy@@@8 ; CLianliankanDlgAutoProxy::`RTTI Base Class Descriptor at (0,-1,0,64)'
	DD	02H
	DD	00H
	DD	0ffffffffH
	DD	00H
	DD	040H
	DD	FLAT:??_R3CLianliankanDlgAutoProxy@@8
rdata$r	ENDS
;	COMDAT ??_R2CLianliankanDlgAutoProxy@@8
rdata$r	SEGMENT
??_R2CLianliankanDlgAutoProxy@@8 DD FLAT:??_R1A@?0A@EA@CLianliankanDlgAutoProxy@@8 ; CLianliankanDlgAutoProxy::`RTTI Base Class Array'
	DD	FLAT:??_R1A@?0A@EA@CCmdTarget@@8
	DD	FLAT:??_R1A@?0A@EA@CObject@@8
rdata$r	ENDS
;	COMDAT ??_R3CLianliankanDlgAutoProxy@@8
rdata$r	SEGMENT
??_R3CLianliankanDlgAutoProxy@@8 DD 00H			; CLianliankanDlgAutoProxy::`RTTI Class Hierarchy Descriptor'
	DD	00H
	DD	03H
	DD	FLAT:??_R2CLianliankanDlgAutoProxy@@8
rdata$r	ENDS
;	COMDAT ??_R0?AVCLianliankanDlgAutoProxy@@@8
data$r	SEGMENT
??_R0?AVCLianliankanDlgAutoProxy@@@8 DD FLAT:??_7type_info@@6B@ ; CLianliankanDlgAutoProxy `RTTI Type Descriptor'
	DD	00H
	DB	'.?AVCLianliankanDlgAutoProxy@@', 00H
data$r	ENDS
;	COMDAT ??_R4CLianliankanDlgAutoProxy@@6B@
rdata$r	SEGMENT
??_R4CLianliankanDlgAutoProxy@@6B@ DD 00H		; CLianliankanDlgAutoProxy::`RTTI Complete Object Locator'
	DD	00H
	DD	00H
	DD	FLAT:??_R0?AVCLianliankanDlgAutoProxy@@@8
	DD	FLAT:??_R3CLianliankanDlgAutoProxy@@8
rdata$r	ENDS
;	COMDAT ?__LINE__Var@?0???0CLianliankanDlgAutoProxy@@QAE@XZ@4JA
_DATA	SEGMENT
?__LINE__Var@?0???0CLianliankanDlgAutoProxy@@QAE@XZ@4JA DD 014H ; `CLianliankanDlgAutoProxy::CLianliankanDlgAutoProxy'::`1'::__LINE__Var
_DATA	ENDS
;	COMDAT ??_C@_0BJ@CPIMMHBI@CLianliankanDlgAutoProxy?$AA@
CONST	SEGMENT
??_C@_0BJ@CPIMMHBI@CLianliankanDlgAutoProxy?$AA@ DB 'CLianliankanDlgAutoP'
	DB	'roxy', 00H					; `string'
CONST	ENDS
;	COMDAT ??_C@_0FC@BLCIEOFF@d?3?2study?2?J?$PN?$LO?$NN?$LN?a?$LJ?$LJ?S?k?K?c?$LH?$KI?W?$NL?$LK?O?J?$LF?Q?i?2@
CONST	SEGMENT
??_C@_0FC@BLCIEOFF@d?3?2study?2?J?$PN?$LO?$NN?$LN?a?$LJ?$LJ?S?k?K?c?$LH?$KI?W?$NL?$LK?O?J?$LF?Q?i?2@ DB 'd'
	DB	':\study\', 0caH, 0fdH, 0beH, 0ddH, 0bdH, 0e1H, 0b9H, 0b9H, 0d3H
	DB	0ebH, 0cbH, 0e3H, 0b7H, 0a8H, 0d7H, 0dbH, 0baH, 0cfH, 0caH, 0b5H
	DB	0d1H, 0e9H, '\', 0c1H, 0acH, 0c1H, 0acH, 0bfH, 0b4H, 0d3H, 0ceH
	DB	0cfH, 0b7H, '\llkpro17.6.18\lianliankan\dlgproxy.cpp', 00H ; `string'
CONST	ENDS
;	COMDAT ??_7CLianliankanDlgAutoProxy@@6B@
CONST	SEGMENT
??_7CLianliankanDlgAutoProxy@@6B@ DD FLAT:??_R4CLianliankanDlgAutoProxy@@6B@ ; CLianliankanDlgAutoProxy::`vftable'
	DD	FLAT:?GetRuntimeClass@CLianliankanDlgAutoProxy@@UBEPAUCRuntimeClass@@XZ
	DD	FLAT:??_ECLianliankanDlgAutoProxy@@MAEPAXI@Z
	DD	FLAT:?Serialize@CObject@@UAEXAAVCArchive@@@Z
	DD	FLAT:?AssertValid@CCmdTarget@@UBEXXZ
	DD	FLAT:?Dump@CCmdTarget@@UBEXAAVCDumpContext@@@Z
	DD	FLAT:?OnCmdMsg@CCmdTarget@@UAEHIHPAXPAUAFX_CMDHANDLERINFO@@@Z
	DD	FLAT:?OnFinalRelease@CLianliankanDlgAutoProxy@@UAEXXZ
	DD	FLAT:?IsInvokeAllowed@CCmdTarget@@UAEHJ@Z
	DD	FLAT:?GetDispatchIID@CCmdTarget@@UAEHPAU_GUID@@@Z
	DD	FLAT:?GetTypeInfoCount@CCmdTarget@@UAEIXZ
	DD	FLAT:?GetTypeLibCache@CCmdTarget@@UAEPAVCTypeLibCache@@XZ
	DD	FLAT:?GetTypeLib@CCmdTarget@@UAEJKPAPAUITypeLib@@@Z
	DD	FLAT:?GetMessageMap@CLianliankanDlgAutoProxy@@MBEPBUAFX_MSGMAP@@XZ
	DD	FLAT:?GetCommandMap@CCmdTarget@@MBEPBUAFX_OLECMDMAP@@XZ
	DD	FLAT:?GetDispatchMap@CLianliankanDlgAutoProxy@@MBEPBUAFX_DISPMAP@@XZ
	DD	FLAT:?GetConnectionMap@CCmdTarget@@MBEPBUAFX_CONNECTIONMAP@@XZ
	DD	FLAT:?GetInterfaceMap@CLianliankanDlgAutoProxy@@MBEPBUAFX_INTERFACEMAP@@XZ
	DD	FLAT:?GetEventSinkMap@CCmdTarget@@MBEPBUAFX_EVENTSINKMAP@@XZ
	DD	FLAT:?OnCreateAggregates@CCmdTarget@@UAEHXZ
	DD	FLAT:?GetInterfaceHook@CCmdTarget@@UAEPAUIUnknown@@PBX@Z
	DD	FLAT:?GetExtraConnectionPoints@CCmdTarget@@MAEHPAVCPtrArray@@@Z
	DD	FLAT:?GetConnectionHook@CCmdTarget@@MAEPAUIConnectionPoint@@ABU_GUID@@@Z
CONST	ENDS
;	COMDAT ?interfaceMap@CLianliankanDlgAutoProxy@@1UAFX_INTERFACEMAP@@B
CONST	SEGMENT
?interfaceMap@CLianliankanDlgAutoProxy@@1UAFX_INTERFACEMAP@@B DD FLAT:?GetThisInterfaceMap@CCmdTarget@@KGPBUAFX_INTERFACEMAP@@XZ ; CLianliankanDlgAutoProxy::interfaceMap
	DD	FLAT:?_interfaceEntries@CLianliankanDlgAutoProxy@@0QBUAFX_INTERFACEMAP_ENTRY@@B
CONST	ENDS
;	COMDAT ?dispatchMap@CLianliankanDlgAutoProxy@@1UAFX_DISPMAP@@B
CONST	SEGMENT
?dispatchMap@CLianliankanDlgAutoProxy@@1UAFX_DISPMAP@@B DD FLAT:?GetThisDispatchMap@CCmdTarget@@KGPBUAFX_DISPMAP@@XZ ; CLianliankanDlgAutoProxy::dispatchMap
	DD	FLAT:?_dispatchEntries@CLianliankanDlgAutoProxy@@0QBUAFX_DISPMAP_ENTRY@@B
	DD	FLAT:?_dispatchEntryCount@CLianliankanDlgAutoProxy@@0IA
	DD	FLAT:?_dwStockPropMask@CLianliankanDlgAutoProxy@@0KA
CONST	ENDS
;	COMDAT ?classCLianliankanDlgAutoProxy@CLianliankanDlgAutoProxy@@2UCRuntimeClass@@B
CONST	SEGMENT
?classCLianliankanDlgAutoProxy@CLianliankanDlgAutoProxy@@2UCRuntimeClass@@B DD FLAT:??_C@_0BJ@CPIMMHBI@CLianliankanDlgAutoProxy?$AA@ ; CLianliankanDlgAutoProxy::classCLianliankanDlgAutoProxy
	DD	024H
	DD	0ffffH
	DD	FLAT:?CreateObject@CLianliankanDlgAutoProxy@@SGPAVCObject@@XZ
	DD	FLAT:?_GetBaseClass@CLianliankanDlgAutoProxy@@KGPAUCRuntimeClass@@XZ
	DD	00H
	DD	00H
CONST	ENDS
;	COMDAT ??_R2CCmdTarget@@8
rdata$r	SEGMENT
??_R2CCmdTarget@@8 DD FLAT:??_R1A@?0A@EA@CCmdTarget@@8	; CCmdTarget::`RTTI Base Class Array'
	DD	FLAT:??_R1A@?0A@EA@CObject@@8
rdata$r	ENDS
;	COMDAT ??_R3CCmdTarget@@8
rdata$r	SEGMENT
??_R3CCmdTarget@@8 DD 00H				; CCmdTarget::`RTTI Class Hierarchy Descriptor'
	DD	00H
	DD	02H
	DD	FLAT:??_R2CCmdTarget@@8
rdata$r	ENDS
;	COMDAT ??_R0?AVCCmdTarget@@@8
data$r	SEGMENT
??_R0?AVCCmdTarget@@@8 DD FLAT:??_7type_info@@6B@	; CCmdTarget `RTTI Type Descriptor'
	DD	00H
	DB	'.?AVCCmdTarget@@', 00H
data$r	ENDS
;	COMDAT ??_R1A@?0A@EA@CCmdTarget@@8
rdata$r	SEGMENT
??_R1A@?0A@EA@CCmdTarget@@8 DD FLAT:??_R0?AVCCmdTarget@@@8 ; CCmdTarget::`RTTI Base Class Descriptor at (0,-1,0,64)'
	DD	01H
	DD	00H
	DD	0ffffffffH
	DD	00H
	DD	040H
	DD	FLAT:??_R3CCmdTarget@@8
rdata$r	ENDS
;	COMDAT ??_R2CObject@@8
rdata$r	SEGMENT
??_R2CObject@@8 DD FLAT:??_R1A@?0A@EA@CObject@@8	; CObject::`RTTI Base Class Array'
rdata$r	ENDS
;	COMDAT ??_R3CObject@@8
rdata$r	SEGMENT
??_R3CObject@@8 DD 00H					; CObject::`RTTI Class Hierarchy Descriptor'
	DD	00H
	DD	01H
	DD	FLAT:??_R2CObject@@8
rdata$r	ENDS
;	COMDAT ??_R0?AVCObject@@@8
data$r	SEGMENT
??_R0?AVCObject@@@8 DD FLAT:??_7type_info@@6B@		; CObject `RTTI Type Descriptor'
	DD	00H
	DB	'.?AVCObject@@', 00H
data$r	ENDS
;	COMDAT ??_R1A@?0A@EA@CObject@@8
rdata$r	SEGMENT
??_R1A@?0A@EA@CObject@@8 DD FLAT:??_R0?AVCObject@@@8	; CObject::`RTTI Base Class Descriptor at (0,-1,0,64)'
	DD	00H
	DD	00H
	DD	0ffffffffH
	DD	00H
	DD	040H
	DD	FLAT:??_R3CObject@@8
rdata$r	ENDS
;	COMDAT xdata$x
xdata$x	SEGMENT
__unwindtable$??_GCLianliankanDlgAutoProxy@@MAEPAXI@Z DD 0ffffffffH
	DD	FLAT:__unwindfunclet$??_GCLianliankanDlgAutoProxy@@MAEPAXI@Z$1
__ehfuncinfo$??_GCLianliankanDlgAutoProxy@@MAEPAXI@Z DD 019930522H
	DD	01H
	DD	FLAT:__unwindtable$??_GCLianliankanDlgAutoProxy@@MAEPAXI@Z
	DD	2 DUP(00H)
	DD	2 DUP(00H)
	DD	00H
	DD	05H
xdata$x	ENDS
;	COMDAT xdata$x
xdata$x	SEGMENT
__ehfuncinfo$??1CLianliankanDlgAutoProxy@@MAE@XZ DD 019930522H
	DD	00H
	DD	00H
	DD	2 DUP(00H)
	DD	2 DUP(00H)
	DD	00H
	DD	05H
xdata$x	ENDS
;	COMDAT xdata$x
xdata$x	SEGMENT
__unwindtable$??0CLianliankanDlgAutoProxy@@QAE@XZ DD 0ffffffffH
	DD	FLAT:__unwindfunclet$??0CLianliankanDlgAutoProxy@@QAE@XZ$0
__ehfuncinfo$??0CLianliankanDlgAutoProxy@@QAE@XZ DD 019930522H
	DD	01H
	DD	FLAT:__unwindtable$??0CLianliankanDlgAutoProxy@@QAE@XZ
	DD	2 DUP(00H)
	DD	2 DUP(00H)
	DD	00H
	DD	01H
xdata$x	ENDS
;	COMDAT xdata$x
xdata$x	SEGMENT
__unwindtable$?CreateObject@CLianliankanDlgAutoProxy@@SGPAVCObject@@XZ DD 0ffffffffH
	DD	FLAT:__unwindfunclet$?CreateObject@CLianliankanDlgAutoProxy@@SGPAVCObject@@XZ$0
__ehfuncinfo$?CreateObject@CLianliankanDlgAutoProxy@@SGPAVCObject@@XZ DD 019930522H
	DD	01H
	DD	FLAT:__unwindtable$?CreateObject@CLianliankanDlgAutoProxy@@SGPAVCObject@@XZ
	DD	2 DUP(00H)
	DD	2 DUP(00H)
	DD	00H
	DD	01H
xdata$x	ENDS
; Function compile flags: /Ogtp
;	COMDAT ??__F?factory@CLianliankanDlgAutoProxy@@2VCOleObjectFactory@@A@@YAXXZ
text$yd	SEGMENT
??__F?factory@CLianliankanDlgAutoProxy@@2VCOleObjectFactory@@A@@YAXXZ PROC ; `dynamic atexit destructor for 'CLianliankanDlgAutoProxy::factory'', COMDAT
  00000	b9 00 00 00 00	 mov	 ecx, OFFSET ?factory@CLianliankanDlgAutoProxy@@2VCOleObjectFactory@@A ; CLianliankanDlgAutoProxy::factory
  00005	e9 00 00 00 00	 jmp	 ??1COleObjectFactory@@UAE@XZ ; COleObjectFactory::~COleObjectFactory
??__F?factory@CLianliankanDlgAutoProxy@@2VCOleObjectFactory@@A@@YAXXZ ENDP ; `dynamic atexit destructor for 'CLianliankanDlgAutoProxy::factory''
text$yd	ENDS
; Function compile flags: /Ogtp
; File d:\study\数据结构与算法综合实验\连连看游戏\llkpro17.6.18\lianliankan\dlgproxy.cpp
;	COMDAT ??__E?factory@CLianliankanDlgAutoProxy@@2VCOleObjectFactory@@A@@YAXXZ
text$di	SEGMENT
??__E?factory@CLianliankanDlgAutoProxy@@2VCOleObjectFactory@@A@@YAXXZ PROC ; `dynamic initializer for 'CLianliankanDlgAutoProxy::factory'', COMDAT

; 83   : IMPLEMENT_OLECREATE2(CLianliankanDlgAutoProxy, "Lianliankan.Application", 0xbdc3a4da, 0xe97e, 0x49f0, 0x91, 0x84, 0xf8, 0xa3, 0x86, 0xcf, 0xbf, 0x52)

  00000	68 00 00 00 00	 push	 OFFSET ??_C@_1DA@OAHKEIGH@?$AAL?$AAi?$AAa?$AAn?$AAl?$AAi?$AAa?$AAn?$AAk?$AAa?$AAn?$AA?4?$AAA?$AAp?$AAp?$AAl?$AAi?$AAc?$AAa?$AAt?$AAi?$AAo?$AAn?$AA?$AA@
  00005	6a 01		 push	 1
  00007	68 00 00 00 00	 push	 OFFSET ?classCLianliankanDlgAutoProxy@CLianliankanDlgAutoProxy@@2UCRuntimeClass@@B ; CLianliankanDlgAutoProxy::classCLianliankanDlgAutoProxy
  0000c	68 00 00 00 00	 push	 OFFSET ?guid@CLianliankanDlgAutoProxy@@2U_GUID@@B ; CLianliankanDlgAutoProxy::guid
  00011	b9 00 00 00 00	 mov	 ecx, OFFSET ?factory@CLianliankanDlgAutoProxy@@2VCOleObjectFactory@@A ; CLianliankanDlgAutoProxy::factory
  00016	e8 00 00 00 00	 call	 ??0COleObjectFactory@@QAE@ABU_GUID@@PAUCRuntimeClass@@HPB_W@Z ; COleObjectFactory::COleObjectFactory
  0001b	68 00 00 00 00	 push	 OFFSET ??__F?factory@CLianliankanDlgAutoProxy@@2VCOleObjectFactory@@A@@YAXXZ ; `dynamic atexit destructor for 'CLianliankanDlgAutoProxy::factory''
  00020	e8 00 00 00 00	 call	 _atexit
  00025	59		 pop	 ecx
  00026	c3		 ret	 0
??__E?factory@CLianliankanDlgAutoProxy@@2VCOleObjectFactory@@A@@YAXXZ ENDP ; `dynamic initializer for 'CLianliankanDlgAutoProxy::factory''
text$di	ENDS
; Function compile flags: /Ogtp
; File d:\study\数据结构与算法综合实验\连连看游戏\llkpro17.6.18\lianliankan\dlgproxy.cpp
;	COMDAT ??_GCLianliankanDlgAutoProxy@@MAEPAXI@Z
_TEXT	SEGMENT
__$EHRec$ = -12						; size = 12
___flags$ = 8						; size = 4
??_GCLianliankanDlgAutoProxy@@MAEPAXI@Z PROC		; CLianliankanDlgAutoProxy::`scalar deleting destructor', COMDAT
; _this$ = ecx
  00000	55		 push	 ebp
  00001	8b ec		 mov	 ebp, esp
  00003	6a ff		 push	 -1
  00005	68 00 00 00 00	 push	 __ehhandler$??_GCLianliankanDlgAutoProxy@@MAEPAXI@Z
  0000a	64 a1 00 00 00
	00		 mov	 eax, DWORD PTR fs:0
  00010	50		 push	 eax
  00011	56		 push	 esi
  00012	a1 00 00 00 00	 mov	 eax, DWORD PTR ___security_cookie
  00017	33 c5		 xor	 eax, ebp
  00019	50		 push	 eax
  0001a	8d 45 f4	 lea	 eax, DWORD PTR __$EHRec$[ebp]
  0001d	64 a3 00 00 00
	00		 mov	 DWORD PTR fs:0, eax
  00023	8b f1		 mov	 esi, ecx

; 48   : 	if (m_pDialog != NULL)

  00025	8b 46 20	 mov	 eax, DWORD PTR [esi+32]
  00028	c7 45 fc 00 00
	00 00		 mov	 DWORD PTR __$EHRec$[ebp+8], 0
  0002f	c7 06 00 00 00
	00		 mov	 DWORD PTR [esi], OFFSET ??_7CLianliankanDlgAutoProxy@@6B@
  00035	85 c0		 test	 eax, eax
  00037	74 0a		 je	 SHORT $LN8@scalar

; 49   : 		m_pDialog->m_pAutoProxy = NULL;

  00039	c7 80 d0 00 00
	00 00 00 00 00	 mov	 DWORD PTR [eax+208], 0
$LN8@scalar:

; 50   : 	AfxOleUnlockApp();

  00043	e8 00 00 00 00	 call	 ?AfxOleUnlockApp@@YGXXZ	; AfxOleUnlockApp

; 51   : }

  00048	8b ce		 mov	 ecx, esi
  0004a	e8 00 00 00 00	 call	 ??1CCmdTarget@@UAE@XZ	; CCmdTarget::~CCmdTarget
  0004f	8b 45 08	 mov	 eax, DWORD PTR ___flags$[ebp]
  00052	a8 01		 test	 al, 1
  00054	74 29		 je	 SHORT $LN11@scalar
  00056	a8 04		 test	 al, 4
  00058	75 1a		 jne	 SHORT $LN3@scalar
  0005a	56		 push	 esi
  0005b	e8 00 00 00 00	 call	 ??3CObject@@SGXPAX@Z	; CObject::operator delete
  00060	8b c6		 mov	 eax, esi
  00062	8b 4d f4	 mov	 ecx, DWORD PTR __$EHRec$[ebp]
  00065	64 89 0d 00 00
	00 00		 mov	 DWORD PTR fs:0, ecx
  0006c	59		 pop	 ecx
  0006d	5e		 pop	 esi
  0006e	8b e5		 mov	 esp, ebp
  00070	5d		 pop	 ebp
  00071	c2 04 00	 ret	 4
$LN3@scalar:
  00074	6a 24		 push	 36			; 00000024H
  00076	56		 push	 esi
  00077	e8 00 00 00 00	 call	 ?__global_delete@@YAXPAXI@Z ; __global_delete
  0007c	83 c4 08	 add	 esp, 8
$LN11@scalar:
  0007f	8b c6		 mov	 eax, esi
  00081	8b 4d f4	 mov	 ecx, DWORD PTR __$EHRec$[ebp]
  00084	64 89 0d 00 00
	00 00		 mov	 DWORD PTR fs:0, ecx
  0008b	59		 pop	 ecx
  0008c	5e		 pop	 esi
  0008d	8b e5		 mov	 esp, ebp
  0008f	5d		 pop	 ebp
  00090	c2 04 00	 ret	 4
_TEXT	ENDS
;	COMDAT text$x
text$x	SEGMENT
__unwindfunclet$??_GCLianliankanDlgAutoProxy@@MAEPAXI@Z$1:
  00000	e8 00 00 00 00	 call	 ___std_terminate
  00005	c3		 ret	 0
__ehhandler$??_GCLianliankanDlgAutoProxy@@MAEPAXI@Z:
  00006	8b 54 24 08	 mov	 edx, DWORD PTR [esp+8]
  0000a	8d 42 0c	 lea	 eax, DWORD PTR [edx+12]
  0000d	8b 4a f8	 mov	 ecx, DWORD PTR [edx-8]
  00010	33 c8		 xor	 ecx, eax
  00012	e8 00 00 00 00	 call	 @__security_check_cookie@4
  00017	b8 00 00 00 00	 mov	 eax, OFFSET __ehfuncinfo$??_GCLianliankanDlgAutoProxy@@MAEPAXI@Z
  0001c	e9 00 00 00 00	 jmp	 ___CxxFrameHandler3
text$x	ENDS
??_GCLianliankanDlgAutoProxy@@MAEPAXI@Z ENDP		; CLianliankanDlgAutoProxy::`scalar deleting destructor'
; Function compile flags: /Ogtp
; File d:\study\数据结构与算法综合实验\连连看游戏\llkpro17.6.18\lianliankan\dlgproxy.cpp
;	COMDAT ?GetInterfaceMap@CLianliankanDlgAutoProxy@@MBEPBUAFX_INTERFACEMAP@@XZ
_TEXT	SEGMENT
?GetInterfaceMap@CLianliankanDlgAutoProxy@@MBEPBUAFX_INTERFACEMAP@@XZ PROC ; CLianliankanDlgAutoProxy::GetInterfaceMap, COMDAT
; _this$ = ecx

; 77   : BEGIN_INTERFACE_MAP(CLianliankanDlgAutoProxy, CCmdTarget)

  00000	b8 00 00 00 00	 mov	 eax, OFFSET ?interfaceMap@CLianliankanDlgAutoProxy@@1UAFX_INTERFACEMAP@@B ; CLianliankanDlgAutoProxy::interfaceMap
  00005	c3		 ret	 0
?GetInterfaceMap@CLianliankanDlgAutoProxy@@MBEPBUAFX_INTERFACEMAP@@XZ ENDP ; CLianliankanDlgAutoProxy::GetInterfaceMap
_TEXT	ENDS
; Function compile flags: /Ogtp
; File d:\study\数据结构与算法综合实验\连连看游戏\llkpro17.6.18\lianliankan\dlgproxy.cpp
;	COMDAT ?GetThisInterfaceMap@CLianliankanDlgAutoProxy@@KGPBUAFX_INTERFACEMAP@@XZ
_TEXT	SEGMENT
?GetThisInterfaceMap@CLianliankanDlgAutoProxy@@KGPBUAFX_INTERFACEMAP@@XZ PROC ; CLianliankanDlgAutoProxy::GetThisInterfaceMap, COMDAT

; 77   : BEGIN_INTERFACE_MAP(CLianliankanDlgAutoProxy, CCmdTarget)

  00000	b8 00 00 00 00	 mov	 eax, OFFSET ?interfaceMap@CLianliankanDlgAutoProxy@@1UAFX_INTERFACEMAP@@B ; CLianliankanDlgAutoProxy::interfaceMap
  00005	c3		 ret	 0
?GetThisInterfaceMap@CLianliankanDlgAutoProxy@@KGPBUAFX_INTERFACEMAP@@XZ ENDP ; CLianliankanDlgAutoProxy::GetThisInterfaceMap
_TEXT	ENDS
; Function compile flags: /Ogtp
; File d:\study\数据结构与算法综合实验\连连看游戏\llkpro17.6.18\lianliankan\dlgproxy.cpp
;	COMDAT ?GetDispatchMap@CLianliankanDlgAutoProxy@@MBEPBUAFX_DISPMAP@@XZ
_TEXT	SEGMENT
?GetDispatchMap@CLianliankanDlgAutoProxy@@MBEPBUAFX_DISPMAP@@XZ PROC ; CLianliankanDlgAutoProxy::GetDispatchMap, COMDAT
; _this$ = ecx

; 66   : BEGIN_DISPATCH_MAP(CLianliankanDlgAutoProxy, CCmdTarget)

  00000	b8 00 00 00 00	 mov	 eax, OFFSET ?dispatchMap@CLianliankanDlgAutoProxy@@1UAFX_DISPMAP@@B ; CLianliankanDlgAutoProxy::dispatchMap
  00005	c3		 ret	 0
?GetDispatchMap@CLianliankanDlgAutoProxy@@MBEPBUAFX_DISPMAP@@XZ ENDP ; CLianliankanDlgAutoProxy::GetDispatchMap
_TEXT	ENDS
; Function compile flags: /Ogtp
; File d:\study\数据结构与算法综合实验\连连看游戏\llkpro17.6.18\lianliankan\dlgproxy.cpp
;	COMDAT ?GetThisDispatchMap@CLianliankanDlgAutoProxy@@KGPBUAFX_DISPMAP@@XZ
_TEXT	SEGMENT
?GetThisDispatchMap@CLianliankanDlgAutoProxy@@KGPBUAFX_DISPMAP@@XZ PROC ; CLianliankanDlgAutoProxy::GetThisDispatchMap, COMDAT

; 66   : BEGIN_DISPATCH_MAP(CLianliankanDlgAutoProxy, CCmdTarget)

  00000	b8 00 00 00 00	 mov	 eax, OFFSET ?dispatchMap@CLianliankanDlgAutoProxy@@1UAFX_DISPMAP@@B ; CLianliankanDlgAutoProxy::dispatchMap
  00005	c3		 ret	 0
?GetThisDispatchMap@CLianliankanDlgAutoProxy@@KGPBUAFX_DISPMAP@@XZ ENDP ; CLianliankanDlgAutoProxy::GetThisDispatchMap
_TEXT	ENDS
; Function compile flags: /Ogtp
; File d:\study\数据结构与算法综合实验\连连看游戏\llkpro17.6.18\lianliankan\dlgproxy.cpp
;	COMDAT ?GetMessageMap@CLianliankanDlgAutoProxy@@MBEPBUAFX_MSGMAP@@XZ
_TEXT	SEGMENT
?GetMessageMap@CLianliankanDlgAutoProxy@@MBEPBUAFX_MSGMAP@@XZ PROC ; CLianliankanDlgAutoProxy::GetMessageMap, COMDAT
; _this$ = ecx

; 63   : BEGIN_MESSAGE_MAP(CLianliankanDlgAutoProxy, CCmdTarget)

  00000	b8 00 00 00 00	 mov	 eax, OFFSET ?messageMap@?1??GetThisMessageMap@CLianliankanDlgAutoProxy@@KGPBUAFX_MSGMAP@@XZ@4U3@B
  00005	c3		 ret	 0
?GetMessageMap@CLianliankanDlgAutoProxy@@MBEPBUAFX_MSGMAP@@XZ ENDP ; CLianliankanDlgAutoProxy::GetMessageMap
_TEXT	ENDS
; Function compile flags: /Ogtp
; File d:\study\数据结构与算法综合实验\连连看游戏\llkpro17.6.18\lianliankan\dlgproxy.cpp
;	COMDAT ?GetThisMessageMap@CLianliankanDlgAutoProxy@@KGPBUAFX_MSGMAP@@XZ
_TEXT	SEGMENT
?GetThisMessageMap@CLianliankanDlgAutoProxy@@KGPBUAFX_MSGMAP@@XZ PROC ; CLianliankanDlgAutoProxy::GetThisMessageMap, COMDAT

; 64   : END_MESSAGE_MAP()

  00000	b8 00 00 00 00	 mov	 eax, OFFSET ?messageMap@?1??GetThisMessageMap@CLianliankanDlgAutoProxy@@KGPBUAFX_MSGMAP@@XZ@4U3@B
  00005	c3		 ret	 0
?GetThisMessageMap@CLianliankanDlgAutoProxy@@KGPBUAFX_MSGMAP@@XZ ENDP ; CLianliankanDlgAutoProxy::GetThisMessageMap
_TEXT	ENDS
; Function compile flags: /Ogtp
; File d:\study\数据结构与算法综合实验\连连看游戏\llkpro17.6.18\lianliankan\dlgproxy.cpp
;	COMDAT ??1CLianliankanDlgAutoProxy@@MAE@XZ
_TEXT	SEGMENT
__$EHRec$ = -12						; size = 12
??1CLianliankanDlgAutoProxy@@MAE@XZ PROC		; CLianliankanDlgAutoProxy::~CLianliankanDlgAutoProxy, COMDAT
; _this$ = ecx

; 44   : {

  00000	55		 push	 ebp
  00001	8b ec		 mov	 ebp, esp
  00003	6a ff		 push	 -1
  00005	68 00 00 00 00	 push	 __ehhandler$??1CLianliankanDlgAutoProxy@@MAE@XZ
  0000a	64 a1 00 00 00
	00		 mov	 eax, DWORD PTR fs:0
  00010	50		 push	 eax
  00011	56		 push	 esi
  00012	a1 00 00 00 00	 mov	 eax, DWORD PTR ___security_cookie
  00017	33 c5		 xor	 eax, ebp
  00019	50		 push	 eax
  0001a	8d 45 f4	 lea	 eax, DWORD PTR __$EHRec$[ebp]
  0001d	64 a3 00 00 00
	00		 mov	 DWORD PTR fs:0, eax
  00023	8b f1		 mov	 esi, ecx

; 45   : 	// 为了在用 OLE 自动化创建所有对象后终止应用程序，
; 46   : 	//	析构函数调用 AfxOleUnlockApp。
; 47   : 	//  除了做其他事情外，这还将销毁主对话框
; 48   : 	if (m_pDialog != NULL)

  00025	8b 46 20	 mov	 eax, DWORD PTR [esi+32]
  00028	c7 06 00 00 00
	00		 mov	 DWORD PTR [esi], OFFSET ??_7CLianliankanDlgAutoProxy@@6B@
  0002e	85 c0		 test	 eax, eax
  00030	74 0a		 je	 SHORT $LN2@CLianliank

; 49   : 		m_pDialog->m_pAutoProxy = NULL;

  00032	c7 80 d0 00 00
	00 00 00 00 00	 mov	 DWORD PTR [eax+208], 0
$LN2@CLianliank:

; 50   : 	AfxOleUnlockApp();

  0003c	e8 00 00 00 00	 call	 ?AfxOleUnlockApp@@YGXXZ	; AfxOleUnlockApp

; 51   : }

  00041	8b ce		 mov	 ecx, esi
  00043	e8 00 00 00 00	 call	 ??1CCmdTarget@@UAE@XZ	; CCmdTarget::~CCmdTarget
  00048	8b 4d f4	 mov	 ecx, DWORD PTR __$EHRec$[ebp]
  0004b	64 89 0d 00 00
	00 00		 mov	 DWORD PTR fs:0, ecx
  00052	59		 pop	 ecx
  00053	5e		 pop	 esi
  00054	8b e5		 mov	 esp, ebp
  00056	5d		 pop	 ebp
  00057	c3		 ret	 0
_TEXT	ENDS
;	COMDAT text$x
text$x	SEGMENT
__ehhandler$??1CLianliankanDlgAutoProxy@@MAE@XZ:
  00000	8b 54 24 08	 mov	 edx, DWORD PTR [esp+8]
  00004	8d 42 0c	 lea	 eax, DWORD PTR [edx+12]
  00007	8b 4a f8	 mov	 ecx, DWORD PTR [edx-8]
  0000a	33 c8		 xor	 ecx, eax
  0000c	e8 00 00 00 00	 call	 @__security_check_cookie@4
  00011	b8 00 00 00 00	 mov	 eax, OFFSET __ehfuncinfo$??1CLianliankanDlgAutoProxy@@MAE@XZ
  00016	e9 00 00 00 00	 jmp	 ___CxxFrameHandler3
text$x	ENDS
??1CLianliankanDlgAutoProxy@@MAE@XZ ENDP		; CLianliankanDlgAutoProxy::~CLianliankanDlgAutoProxy
; Function compile flags: /Ogtp
; File d:\study\数据结构与算法综合实验\连连看游戏\llkpro17.6.18\lianliankan\dlgproxy.cpp
;	COMDAT ?OnFinalRelease@CLianliankanDlgAutoProxy@@UAEXXZ
_TEXT	SEGMENT
?OnFinalRelease@CLianliankanDlgAutoProxy@@UAEXXZ PROC	; CLianliankanDlgAutoProxy::OnFinalRelease, COMDAT
; _this$ = ecx

; 55   : 	// 释放了对自动化对象的最后一个引用后，将调用
; 56   : 	// OnFinalRelease。  基类将自动
; 57   : 	// 删除该对象。  在调用该基类之前，请添加您的
; 58   : 	// 对象所需的附加清理代码。
; 59   : 
; 60   : 	CCmdTarget::OnFinalRelease();

  00000	e9 00 00 00 00	 jmp	 ?OnFinalRelease@CCmdTarget@@UAEXXZ ; CCmdTarget::OnFinalRelease
?OnFinalRelease@CLianliankanDlgAutoProxy@@UAEXXZ ENDP	; CLianliankanDlgAutoProxy::OnFinalRelease
_TEXT	ENDS
; Function compile flags: /Ogtp
; File d:\study\数据结构与算法综合实验\连连看游戏\llkpro17.6.18\lianliankan\dlgproxy.cpp
; File d:\developer\microsoft visual studio 14.0\vc\atlmfc\include\afx.h
; File d:\study\数据结构与算法综合实验\连连看游戏\llkpro17.6.18\lianliankan\dlgproxy.cpp
; File d:\developer\microsoft visual studio 14.0\vc\atlmfc\include\afx.h
; File d:\study\数据结构与算法综合实验\连连看游戏\llkpro17.6.18\lianliankan\dlgproxy.cpp
;	COMDAT ??0CLianliankanDlgAutoProxy@@QAE@XZ
_TEXT	SEGMENT
_this$GSCopy$ = -52					; size = 4
_this$ = -48						; size = 4
_msg$2 = -44						; size = 28
__$ArrayPad$ = -16					; size = 4
__$EHRec$ = -12						; size = 12
??0CLianliankanDlgAutoProxy@@QAE@XZ PROC		; CLianliankanDlgAutoProxy::CLianliankanDlgAutoProxy, COMDAT
; _this$ = ecx

; 20   : {

  00000	55		 push	 ebp
  00001	8b ec		 mov	 ebp, esp
  00003	6a ff		 push	 -1
  00005	68 00 00 00 00	 push	 __ehhandler$??0CLianliankanDlgAutoProxy@@QAE@XZ
  0000a	64 a1 00 00 00
	00		 mov	 eax, DWORD PTR fs:0
  00010	50		 push	 eax
  00011	83 ec 28	 sub	 esp, 40			; 00000028H
  00014	a1 00 00 00 00	 mov	 eax, DWORD PTR ___security_cookie
  00019	33 c5		 xor	 eax, ebp
  0001b	89 45 f0	 mov	 DWORD PTR __$ArrayPad$[ebp], eax
  0001e	53		 push	 ebx
  0001f	56		 push	 esi
  00020	57		 push	 edi
  00021	50		 push	 eax
  00022	8d 45 f4	 lea	 eax, DWORD PTR __$EHRec$[ebp]
  00025	64 a3 00 00 00
	00		 mov	 DWORD PTR fs:0, eax
  0002b	8b d9		 mov	 ebx, ecx
  0002d	89 5d d0	 mov	 DWORD PTR _this$[ebp], ebx
  00030	89 5d cc	 mov	 DWORD PTR _this$GSCopy$[ebp], ebx
  00033	e8 00 00 00 00	 call	 ??0CCmdTarget@@QAE@XZ	; CCmdTarget::CCmdTarget

; 21   : 	EnableAutomation();

  00038	8b cb		 mov	 ecx, ebx
  0003a	c7 45 fc 00 00
	00 00		 mov	 DWORD PTR __$EHRec$[ebp+8], 0
  00041	c7 03 00 00 00
	00		 mov	 DWORD PTR [ebx], OFFSET ??_7CLianliankanDlgAutoProxy@@6B@
  00047	e8 00 00 00 00	 call	 ?EnableAutomation@CCmdTarget@@QAEXXZ ; CCmdTarget::EnableAutomation

; 22   : 	
; 23   : 	// 为使应用程序在自动化对象处于活动状态时一直保持 
; 24   : 	//	运行，构造函数调用 AfxOleLockApp。
; 25   : 	AfxOleLockApp();

  0004c	e8 00 00 00 00	 call	 ?AfxOleLockApp@@YGXXZ	; AfxOleLockApp

; 26   : 
; 27   : 	// 通过应用程序的主窗口指针
; 28   : 	//  来访问对话框。  设置代理的内部指针
; 29   : 	//  指向对话框，并设置对话框的后向指针指向
; 30   : 	//  该代理。
; 31   : 	ASSERT_VALID(AfxGetApp()->m_pMainWnd);

  00051	a1 00 00 00 00	 mov	 eax, DWORD PTR ?__LINE__Var@?0???0CLianliankanDlgAutoProxy@@QAE@XZ@4JA
  00056	83 c0 0b	 add	 eax, 11			; 0000000bH
  00059	50		 push	 eax
  0005a	68 00 00 00 00	 push	 OFFSET ??_C@_0FC@BLCIEOFF@d?3?2study?2?J?$PN?$LO?$NN?$LN?a?$LJ?$LJ?S?k?K?c?$LH?$KI?W?$NL?$LK?O?J?$LF?Q?i?2@
  0005f	e8 00 00 00 00	 call	 ?AfxGetApp@@YGPAVCWinApp@@XZ ; AfxGetApp
  00064	8b 40 20	 mov	 eax, DWORD PTR [eax+32]
  00067	50		 push	 eax
  00068	e8 00 00 00 00	 call	 ?AfxAssertValidObject@@YGXPBVCObject@@PBDH@Z ; AfxAssertValidObject

; 32   : 	if (AfxGetApp()->m_pMainWnd)

  0006d	e8 00 00 00 00	 call	 ?AfxGetApp@@YGPAVCWinApp@@XZ ; AfxGetApp
  00072	83 78 20 00	 cmp	 DWORD PTR [eax+32], 0
  00076	0f 84 84 00 00
	00		 je	 $LN11@CLianliank

; 34   : 		ASSERT_KINDOF(CLLKDlg, AfxGetApp()->m_pMainWnd);

  0007c	e8 00 00 00 00	 call	 ?GetThisClass@CLLKDlg@@SGPAUCRuntimeClass@@XZ ; CLLKDlg::GetThisClass
  00081	50		 push	 eax
  00082	e8 00 00 00 00	 call	 ?AfxGetApp@@YGPAVCWinApp@@XZ ; AfxGetApp
  00087	8b 48 20	 mov	 ecx, DWORD PTR [eax+32]
  0008a	e8 00 00 00 00	 call	 ?IsKindOf@CObject@@QBEHPBUCRuntimeClass@@@Z ; CObject::IsKindOf
  0008f	85 c0		 test	 eax, eax
  00091	75 45		 jne	 SHORT $LN5@CLianliank
  00093	8b 3d 00 00 00
	00		 mov	 edi, DWORD PTR ?__LINE__Var@?0???0CLianliankanDlgAutoProxy@@QAE@XZ@4JA
; File d:\developer\microsoft visual studio 14.0\vc\atlmfc\include\afx.h

; 332  : 	BOOL bQuit = PeekMessage(&msg, NULL, WM_QUIT, WM_QUIT, PM_REMOVE);

  00099	6a 01		 push	 1
  0009b	6a 12		 push	 18			; 00000012H
  0009d	6a 12		 push	 18			; 00000012H
  0009f	50		 push	 eax
  000a0	8d 45 d4	 lea	 eax, DWORD PTR _msg$2[ebp]
; File d:\study\数据结构与算法综合实验\连连看游戏\llkpro17.6.18\lianliankan\dlgproxy.cpp

; 34   : 		ASSERT_KINDOF(CLLKDlg, AfxGetApp()->m_pMainWnd);

  000a3	83 c7 0e	 add	 edi, 14			; 0000000eH
; File d:\developer\microsoft visual studio 14.0\vc\atlmfc\include\afx.h

; 332  : 	BOOL bQuit = PeekMessage(&msg, NULL, WM_QUIT, WM_QUIT, PM_REMOVE);

  000a6	50		 push	 eax
  000a7	ff 15 00 00 00
	00		 call	 DWORD PTR __imp__PeekMessageW@20

; 333  : 	BOOL bResult = _CrtDbgReport(_CRT_ASSERT, lpszFileName, nLine, NULL, NULL);

  000ad	6a 00		 push	 0
  000af	6a 00		 push	 0
  000b1	57		 push	 edi
  000b2	68 00 00 00 00	 push	 OFFSET ??_C@_0FC@BLCIEOFF@d?3?2study?2?J?$PN?$LO?$NN?$LN?a?$LJ?$LJ?S?k?K?c?$LH?$KI?W?$NL?$LK?O?J?$LF?Q?i?2@
  000b7	6a 02		 push	 2
  000b9	8b f0		 mov	 esi, eax
  000bb	ff 15 00 00 00
	00		 call	 DWORD PTR __imp___CrtDbgReport
  000c1	83 c4 14	 add	 esp, 20			; 00000014H
  000c4	8b f8		 mov	 edi, eax

; 334  : 	if (bQuit)

  000c6	85 f6		 test	 esi, esi
  000c8	74 09		 je	 SHORT $LN8@CLianliank

; 335  : 		PostQuitMessage((int)msg.wParam);

  000ca	ff 75 dc	 push	 DWORD PTR _msg$2[ebp+8]
  000cd	ff 15 00 00 00
	00		 call	 DWORD PTR __imp__PostQuitMessage@4
$LN8@CLianliank:
; File d:\study\数据结构与算法综合实验\连连看游戏\llkpro17.6.18\lianliankan\dlgproxy.cpp

; 34   : 		ASSERT_KINDOF(CLLKDlg, AfxGetApp()->m_pMainWnd);

  000d3	85 ff		 test	 edi, edi
  000d5	74 01		 je	 SHORT $LN5@CLianliank
  000d7	cc		 int	 3
$LN5@CLianliank:

; 35   : 		if (AfxGetApp()->m_pMainWnd->IsKindOf(RUNTIME_CLASS(CLLKDlg)))

  000d8	e8 00 00 00 00	 call	 ?GetThisClass@CLLKDlg@@SGPAUCRuntimeClass@@XZ ; CLLKDlg::GetThisClass
  000dd	50		 push	 eax
  000de	e8 00 00 00 00	 call	 ?AfxGetApp@@YGPAVCWinApp@@XZ ; AfxGetApp
  000e3	8b 48 20	 mov	 ecx, DWORD PTR [eax+32]
  000e6	e8 00 00 00 00	 call	 ?IsKindOf@CObject@@QBEHPBUCRuntimeClass@@@Z ; CObject::IsKindOf
  000eb	85 c0		 test	 eax, eax
  000ed	74 11		 je	 SHORT $LN11@CLianliank

; 36   : 		{
; 37   : 			m_pDialog = reinterpret_cast<CLLKDlg*>(AfxGetApp()->m_pMainWnd);

  000ef	e8 00 00 00 00	 call	 ?AfxGetApp@@YGPAVCWinApp@@XZ ; AfxGetApp
  000f4	8b 48 20	 mov	 ecx, DWORD PTR [eax+32]
  000f7	89 4b 20	 mov	 DWORD PTR [ebx+32], ecx

; 38   : 			m_pDialog->m_pAutoProxy = this;

  000fa	89 99 d0 00 00
	00		 mov	 DWORD PTR [ecx+208], ebx
$LN11@CLianliank:

; 39   : 		}
; 40   : 	}
; 41   : }

  00100	8b c3		 mov	 eax, ebx
  00102	8b 4d f4	 mov	 ecx, DWORD PTR __$EHRec$[ebp]
  00105	64 89 0d 00 00
	00 00		 mov	 DWORD PTR fs:0, ecx
  0010c	59		 pop	 ecx
  0010d	5f		 pop	 edi
  0010e	5e		 pop	 esi
  0010f	5b		 pop	 ebx
  00110	8b 4d f0	 mov	 ecx, DWORD PTR __$ArrayPad$[ebp]
  00113	33 cd		 xor	 ecx, ebp
  00115	e8 00 00 00 00	 call	 @__security_check_cookie@4
  0011a	8b e5		 mov	 esp, ebp
  0011c	5d		 pop	 ebp
  0011d	c3		 ret	 0
_TEXT	ENDS
;	COMDAT text$x
text$x	SEGMENT
__unwindfunclet$??0CLianliankanDlgAutoProxy@@QAE@XZ$0:
  00000	8b 4d cc	 mov	 ecx, DWORD PTR _this$GSCopy$[ebp]
  00003	e9 00 00 00 00	 jmp	 ??1CCmdTarget@@UAE@XZ	; CCmdTarget::~CCmdTarget
__ehhandler$??0CLianliankanDlgAutoProxy@@QAE@XZ:
  00008	8b 54 24 08	 mov	 edx, DWORD PTR [esp+8]
  0000c	8d 42 0c	 lea	 eax, DWORD PTR [edx+12]
  0000f	8b 4a c8	 mov	 ecx, DWORD PTR [edx-56]
  00012	33 c8		 xor	 ecx, eax
  00014	e8 00 00 00 00	 call	 @__security_check_cookie@4
  00019	8b 4a fc	 mov	 ecx, DWORD PTR [edx-4]
  0001c	33 c8		 xor	 ecx, eax
  0001e	e8 00 00 00 00	 call	 @__security_check_cookie@4
  00023	b8 00 00 00 00	 mov	 eax, OFFSET __ehfuncinfo$??0CLianliankanDlgAutoProxy@@QAE@XZ
  00028	e9 00 00 00 00	 jmp	 ___CxxFrameHandler3
text$x	ENDS
??0CLianliankanDlgAutoProxy@@QAE@XZ ENDP		; CLianliankanDlgAutoProxy::CLianliankanDlgAutoProxy
; Function compile flags: /Ogtp
; File d:\study\数据结构与算法综合实验\连连看游戏\llkpro17.6.18\lianliankan\dlgproxy.cpp
;	COMDAT ?CreateObject@CLianliankanDlgAutoProxy@@SGPAVCObject@@XZ
_TEXT	SEGMENT
$T2 = -16						; size = 4
__$EHRec$ = -12						; size = 12
?CreateObject@CLianliankanDlgAutoProxy@@SGPAVCObject@@XZ PROC ; CLianliankanDlgAutoProxy::CreateObject, COMDAT

; 17   : IMPLEMENT_DYNCREATE(CLianliankanDlgAutoProxy, CCmdTarget)

  00000	55		 push	 ebp
  00001	8b ec		 mov	 ebp, esp
  00003	6a ff		 push	 -1
  00005	68 00 00 00 00	 push	 __ehhandler$?CreateObject@CLianliankanDlgAutoProxy@@SGPAVCObject@@XZ
  0000a	64 a1 00 00 00
	00		 mov	 eax, DWORD PTR fs:0
  00010	50		 push	 eax
  00011	51		 push	 ecx
  00012	a1 00 00 00 00	 mov	 eax, DWORD PTR ___security_cookie
  00017	33 c5		 xor	 eax, ebp
  00019	50		 push	 eax
  0001a	8d 45 f4	 lea	 eax, DWORD PTR __$EHRec$[ebp]
  0001d	64 a3 00 00 00
	00		 mov	 DWORD PTR fs:0, eax
  00023	6a 11		 push	 17			; 00000011H
  00025	68 00 00 00 00	 push	 OFFSET ??_C@_0FC@BLCIEOFF@d?3?2study?2?J?$PN?$LO?$NN?$LN?a?$LJ?$LJ?S?k?K?c?$LH?$KI?W?$NL?$LK?O?J?$LF?Q?i?2@
  0002a	6a 24		 push	 36			; 00000024H
  0002c	e8 00 00 00 00	 call	 ??2CObject@@SGPAXIPBDH@Z ; CObject::operator new
  00031	89 45 f0	 mov	 DWORD PTR $T2[ebp], eax
  00034	c7 45 fc 00 00
	00 00		 mov	 DWORD PTR __$EHRec$[ebp+8], 0
  0003b	85 c0		 test	 eax, eax
  0003d	74 16		 je	 SHORT $LN3@CreateObje
  0003f	8b c8		 mov	 ecx, eax
  00041	e8 00 00 00 00	 call	 ??0CLianliankanDlgAutoProxy@@QAE@XZ ; CLianliankanDlgAutoProxy::CLianliankanDlgAutoProxy
  00046	8b 4d f4	 mov	 ecx, DWORD PTR __$EHRec$[ebp]
  00049	64 89 0d 00 00
	00 00		 mov	 DWORD PTR fs:0, ecx
  00050	59		 pop	 ecx
  00051	8b e5		 mov	 esp, ebp
  00053	5d		 pop	 ebp
  00054	c3		 ret	 0
$LN3@CreateObje:
  00055	33 c0		 xor	 eax, eax
  00057	8b 4d f4	 mov	 ecx, DWORD PTR __$EHRec$[ebp]
  0005a	64 89 0d 00 00
	00 00		 mov	 DWORD PTR fs:0, ecx
  00061	59		 pop	 ecx
  00062	8b e5		 mov	 esp, ebp
  00064	5d		 pop	 ebp
  00065	c3		 ret	 0
_TEXT	ENDS
;	COMDAT text$x
text$x	SEGMENT
__unwindfunclet$?CreateObject@CLianliankanDlgAutoProxy@@SGPAVCObject@@XZ$0:
  00000	6a 11		 push	 17			; 00000011H
  00002	68 00 00 00 00	 push	 OFFSET ??_C@_0FC@BLCIEOFF@d?3?2study?2?J?$PN?$LO?$NN?$LN?a?$LJ?$LJ?S?k?K?c?$LH?$KI?W?$NL?$LK?O?J?$LF?Q?i?2@
  00007	8b 45 f0	 mov	 eax, DWORD PTR $T2[ebp]
  0000a	50		 push	 eax
  0000b	e8 00 00 00 00	 call	 ??3CObject@@SGXPAXPBDH@Z ; CObject::operator delete
  00010	c3		 ret	 0
__ehhandler$?CreateObject@CLianliankanDlgAutoProxy@@SGPAVCObject@@XZ:
  00011	8b 54 24 08	 mov	 edx, DWORD PTR [esp+8]
  00015	8d 42 0c	 lea	 eax, DWORD PTR [edx+12]
  00018	8b 4a f8	 mov	 ecx, DWORD PTR [edx-8]
  0001b	33 c8		 xor	 ecx, eax
  0001d	e8 00 00 00 00	 call	 @__security_check_cookie@4
  00022	b8 00 00 00 00	 mov	 eax, OFFSET __ehfuncinfo$?CreateObject@CLianliankanDlgAutoProxy@@SGPAVCObject@@XZ
  00027	e9 00 00 00 00	 jmp	 ___CxxFrameHandler3
text$x	ENDS
?CreateObject@CLianliankanDlgAutoProxy@@SGPAVCObject@@XZ ENDP ; CLianliankanDlgAutoProxy::CreateObject
; Function compile flags: /Ogtp
; File d:\study\数据结构与算法综合实验\连连看游戏\llkpro17.6.18\lianliankan\dlgproxy.cpp
;	COMDAT ?GetRuntimeClass@CLianliankanDlgAutoProxy@@UBEPAUCRuntimeClass@@XZ
_TEXT	SEGMENT
?GetRuntimeClass@CLianliankanDlgAutoProxy@@UBEPAUCRuntimeClass@@XZ PROC ; CLianliankanDlgAutoProxy::GetRuntimeClass, COMDAT
; _this$ = ecx

; 17   : IMPLEMENT_DYNCREATE(CLianliankanDlgAutoProxy, CCmdTarget)

  00000	b8 00 00 00 00	 mov	 eax, OFFSET ?classCLianliankanDlgAutoProxy@CLianliankanDlgAutoProxy@@2UCRuntimeClass@@B ; CLianliankanDlgAutoProxy::classCLianliankanDlgAutoProxy
  00005	c3		 ret	 0
?GetRuntimeClass@CLianliankanDlgAutoProxy@@UBEPAUCRuntimeClass@@XZ ENDP ; CLianliankanDlgAutoProxy::GetRuntimeClass
_TEXT	ENDS
; Function compile flags: /Ogtp
; File d:\study\数据结构与算法综合实验\连连看游戏\llkpro17.6.18\lianliankan\dlgproxy.cpp
;	COMDAT ?GetThisClass@CLianliankanDlgAutoProxy@@SGPAUCRuntimeClass@@XZ
_TEXT	SEGMENT
?GetThisClass@CLianliankanDlgAutoProxy@@SGPAUCRuntimeClass@@XZ PROC ; CLianliankanDlgAutoProxy::GetThisClass, COMDAT

; 17   : IMPLEMENT_DYNCREATE(CLianliankanDlgAutoProxy, CCmdTarget)

  00000	b8 00 00 00 00	 mov	 eax, OFFSET ?classCLianliankanDlgAutoProxy@CLianliankanDlgAutoProxy@@2UCRuntimeClass@@B ; CLianliankanDlgAutoProxy::classCLianliankanDlgAutoProxy
  00005	c3		 ret	 0
?GetThisClass@CLianliankanDlgAutoProxy@@SGPAUCRuntimeClass@@XZ ENDP ; CLianliankanDlgAutoProxy::GetThisClass
_TEXT	ENDS
; Function compile flags: /Ogtp
; File d:\study\数据结构与算法综合实验\连连看游戏\llkpro17.6.18\lianliankan\dlgproxy.cpp
;	COMDAT ?_GetBaseClass@CLianliankanDlgAutoProxy@@KGPAUCRuntimeClass@@XZ
_TEXT	SEGMENT
?_GetBaseClass@CLianliankanDlgAutoProxy@@KGPAUCRuntimeClass@@XZ PROC ; CLianliankanDlgAutoProxy::_GetBaseClass, COMDAT

; 17   : IMPLEMENT_DYNCREATE(CLianliankanDlgAutoProxy, CCmdTarget)

  00000	e9 00 00 00 00	 jmp	 ?GetThisClass@CCmdTarget@@SGPAUCRuntimeClass@@XZ ; CCmdTarget::GetThisClass
?_GetBaseClass@CLianliankanDlgAutoProxy@@KGPAUCRuntimeClass@@XZ ENDP ; CLianliankanDlgAutoProxy::_GetBaseClass
_TEXT	ENDS
; Function compile flags: /Ogtp
;	COMDAT ?__autoclassinit2@COleObjectFactory@@QAEXI@Z
_TEXT	SEGMENT
_classSize$ = 8						; size = 4
?__autoclassinit2@COleObjectFactory@@QAEXI@Z PROC	; COleObjectFactory::__autoclassinit2, COMDAT
; _this$ = ecx
  00000	55		 push	 ebp
  00001	8b ec		 mov	 ebp, esp
  00003	ff 75 08	 push	 DWORD PTR _classSize$[ebp]
  00006	6a 00		 push	 0
  00008	51		 push	 ecx
  00009	e8 00 00 00 00	 call	 _memset
  0000e	83 c4 0c	 add	 esp, 12			; 0000000cH
  00011	5d		 pop	 ebp
  00012	c2 04 00	 ret	 4
?__autoclassinit2@COleObjectFactory@@QAEXI@Z ENDP	; COleObjectFactory::__autoclassinit2
_TEXT	ENDS
; Function compile flags: /Ogtp
; File d:\developer\microsoft visual studio 14.0\vc\atlmfc\include\afx.h
;	COMDAT ?AfxAssertFailedLine@@YGHPBDH@Z
_TEXT	SEGMENT
_msg$ = -32						; size = 28
__$ArrayPad$ = -4					; size = 4
_lpszFileName$ = 8					; size = 4
_nLine$ = 12						; size = 4
?AfxAssertFailedLine@@YGHPBDH@Z PROC			; AfxAssertFailedLine, COMDAT

; 328  : {

  00000	55		 push	 ebp
  00001	8b ec		 mov	 ebp, esp
  00003	83 ec 20	 sub	 esp, 32			; 00000020H
  00006	a1 00 00 00 00	 mov	 eax, DWORD PTR ___security_cookie
  0000b	33 c5		 xor	 eax, ebp
  0000d	89 45 fc	 mov	 DWORD PTR __$ArrayPad$[ebp], eax
  00010	56		 push	 esi
  00011	57		 push	 edi
  00012	8b 7d 08	 mov	 edi, DWORD PTR _lpszFileName$[ebp]

; 329  : 	// we remove WM_QUIT because if it is in the queue then the message box
; 330  : 	// won't display
; 331  : 	MSG msg;
; 332  : 	BOOL bQuit = PeekMessage(&msg, NULL, WM_QUIT, WM_QUIT, PM_REMOVE);

  00015	8d 45 e0	 lea	 eax, DWORD PTR _msg$[ebp]
  00018	6a 01		 push	 1
  0001a	6a 12		 push	 18			; 00000012H
  0001c	6a 12		 push	 18			; 00000012H
  0001e	6a 00		 push	 0
  00020	50		 push	 eax
  00021	ff 15 00 00 00
	00		 call	 DWORD PTR __imp__PeekMessageW@20

; 333  : 	BOOL bResult = _CrtDbgReport(_CRT_ASSERT, lpszFileName, nLine, NULL, NULL);

  00027	6a 00		 push	 0
  00029	6a 00		 push	 0
  0002b	ff 75 0c	 push	 DWORD PTR _nLine$[ebp]
  0002e	8b f0		 mov	 esi, eax
  00030	57		 push	 edi
  00031	6a 02		 push	 2
  00033	ff 15 00 00 00
	00		 call	 DWORD PTR __imp___CrtDbgReport
  00039	83 c4 14	 add	 esp, 20			; 00000014H
  0003c	8b f8		 mov	 edi, eax

; 334  : 	if (bQuit)

  0003e	85 f6		 test	 esi, esi
  00040	74 0b		 je	 SHORT $LN2@AfxAssertF

; 335  : 		PostQuitMessage((int)msg.wParam);

  00042	ff 75 e8	 push	 DWORD PTR _msg$[ebp+8]
  00045	ff 15 00 00 00
	00		 call	 DWORD PTR __imp__PostQuitMessage@4

; 336  : 	return bResult;

  0004b	8b c7		 mov	 eax, edi
$LN2@AfxAssertF:

; 337  : }

  0004d	8b 4d fc	 mov	 ecx, DWORD PTR __$ArrayPad$[ebp]
  00050	5f		 pop	 edi
  00051	33 cd		 xor	 ecx, ebp
  00053	5e		 pop	 esi
  00054	e8 00 00 00 00	 call	 @__security_check_cookie@4
  00059	8b e5		 mov	 esp, ebp
  0005b	5d		 pop	 ebp
  0005c	c2 08 00	 ret	 8
?AfxAssertFailedLine@@YGHPBDH@Z ENDP			; AfxAssertFailedLine
_TEXT	ENDS
; Function compile flags: /Ogtp
; File d:\study\数据结构与算法综合实验\连连看游戏\llkpro17.6.18\lianliankan\dlgproxy.cpp
;	COMDAT ?__empty_global_delete@@YAXPAXI@Z
_TEXT	SEGMENT
___formal$ = 8						; size = 4
___formal$ = 12						; size = 4
?__empty_global_delete@@YAXPAXI@Z PROC			; __empty_global_delete, COMDAT

  00000	c3		 ret	 0
?__empty_global_delete@@YAXPAXI@Z ENDP			; __empty_global_delete
_TEXT	ENDS
; Function compile flags: /Ogtp
; File d:\study\数据结构与算法综合实验\连连看游戏\llkpro17.6.18\lianliankan\dlgproxy.cpp
;	COMDAT ?__empty_global_delete@@YAXPAX@Z
_TEXT	SEGMENT
___formal$ = 8						; size = 4
?__empty_global_delete@@YAXPAX@Z PROC			; __empty_global_delete, COMDAT

  00000	c3		 ret	 0
?__empty_global_delete@@YAXPAX@Z ENDP			; __empty_global_delete
_TEXT	ENDS
END
