; Listing generated by Microsoft (R) Optimizing Compiler Version 19.00.24215.1 

	TITLE	D:\Study\数据结构与算法综合实验\连连看游戏\LLKPro17.6.18\Lianliankan\GameHelp.cpp
	.686P
	.XMM
	include listing.inc
	.model	flat

INCLUDELIB MSVCRTD
INCLUDELIB OLDNAMES

PUBLIC	?_dispatchEntries@CGameHelp@@0QBUAFX_DISPMAP_ENTRY@@B ; CGameHelp::_dispatchEntries
PUBLIC	?_dispatchEntryCount@CGameHelp@@0IA		; CGameHelp::_dispatchEntryCount
PUBLIC	?_dwStockPropMask@CGameHelp@@0KA		; CGameHelp::_dwStockPropMask
PUBLIC	?_interfaceEntries@CGameHelp@@0QBUAFX_INTERFACEMAP_ENTRY@@B ; CGameHelp::_interfaceEntries
EXTRN	?GetThisMessageMap@CDialogEx@@KGPBUAFX_MSGMAP@@XZ:PROC ; CDialogEx::GetThisMessageMap
CONST	SEGMENT
?_messageEntries@?1??GetThisMessageMap@CGameHelp@@KGPBUAFX_MSGMAP@@XZ@4QBUAFX_MSGMAP_ENTRY@@B DD 00H ; `CGameHelp::GetThisMessageMap'::`2'::_messageEntries
	DD	00H
	DD	00H
	DD	00H
	DD	00H
	DD	00H
?messageMap@?1??GetThisMessageMap@CGameHelp@@KGPBUAFX_MSGMAP@@XZ@4U3@B DD FLAT:?GetThisMessageMap@CDialogEx@@KGPBUAFX_MSGMAP@@XZ ; `CGameHelp::GetThisMessageMap'::`2'::messageMap
	DD	FLAT:?_messageEntries@?1??GetThisMessageMap@CGameHelp@@KGPBUAFX_MSGMAP@@XZ@4QBUAFX_MSGMAP_ENTRY@@B
?IID_IGameHelp@@3U_GUID@@B DD 08d810658H		; IID_IGameHelp
	DW	0d053H
	DW	04ff9H
	DB	0aaH
	DB	010H
	DB	0aeH
	DB	06aH
	DB	0eeH
	DB	092H
	DB	0acH
	DB	09fH
CONST	ENDS
;	COMDAT ?_interfaceEntries@CGameHelp@@0QBUAFX_INTERFACEMAP_ENTRY@@B
CONST	SEGMENT
?_interfaceEntries@CGameHelp@@0QBUAFX_INTERFACEMAP_ENTRY@@B DD FLAT:?IID_IGameHelp@@3U_GUID@@B ; CGameHelp::_interfaceEntries
	DD	010H
	DD	00H
	DD	0ffffffffH
CONST	ENDS
;	COMDAT ?_dwStockPropMask@CGameHelp@@0KA
_DATA	SEGMENT
?_dwStockPropMask@CGameHelp@@0KA DD 0ffffffffH		; CGameHelp::_dwStockPropMask
_DATA	ENDS
;	COMDAT ?_dispatchEntryCount@CGameHelp@@0IA
_DATA	SEGMENT
?_dispatchEntryCount@CGameHelp@@0IA DD 0ffffffffH	; CGameHelp::_dispatchEntryCount
_DATA	ENDS
;	COMDAT ?_dispatchEntries@CGameHelp@@0QBUAFX_DISPMAP_ENTRY@@B
CONST	SEGMENT
?_dispatchEntries@CGameHelp@@0QBUAFX_DISPMAP_ENTRY@@B DD 00H ; CGameHelp::_dispatchEntries
	DD	0ffffffffH
	DD	00H
	DW	018H
	ORG $+2
	DD	00H
	DD	00H
	DD	0ffffffffH
	DD	00H
CONST	ENDS
PUBLIC	?__empty_global_delete@@YAXPAX@Z		; __empty_global_delete
PUBLIC	?__empty_global_delete@@YAXPAXI@Z		; __empty_global_delete
PUBLIC	??1CDialogEx@@UAE@XZ				; CDialogEx::~CDialogEx
PUBLIC	?_GetBaseClass@CGameHelp@@KGPAUCRuntimeClass@@XZ ; CGameHelp::_GetBaseClass
PUBLIC	?GetThisClass@CGameHelp@@SGPAUCRuntimeClass@@XZ	; CGameHelp::GetThisClass
PUBLIC	?GetRuntimeClass@CGameHelp@@UBEPAUCRuntimeClass@@XZ ; CGameHelp::GetRuntimeClass
PUBLIC	??0CGameHelp@@QAE@PAVCWnd@@@Z			; CGameHelp::CGameHelp
PUBLIC	??1CGameHelp@@UAE@XZ				; CGameHelp::~CGameHelp
PUBLIC	?OnFinalRelease@CGameHelp@@UAEXXZ		; CGameHelp::OnFinalRelease
PUBLIC	?DoDataExchange@CGameHelp@@MAEXPAVCDataExchange@@@Z ; CGameHelp::DoDataExchange
PUBLIC	?GetThisMessageMap@CGameHelp@@KGPBUAFX_MSGMAP@@XZ ; CGameHelp::GetThisMessageMap
PUBLIC	?GetMessageMap@CGameHelp@@MBEPBUAFX_MSGMAP@@XZ	; CGameHelp::GetMessageMap
PUBLIC	?GetThisDispatchMap@CGameHelp@@KGPBUAFX_DISPMAP@@XZ ; CGameHelp::GetThisDispatchMap
PUBLIC	?GetDispatchMap@CGameHelp@@MBEPBUAFX_DISPMAP@@XZ ; CGameHelp::GetDispatchMap
PUBLIC	?GetThisInterfaceMap@CGameHelp@@KGPBUAFX_INTERFACEMAP@@XZ ; CGameHelp::GetThisInterfaceMap
PUBLIC	?GetInterfaceMap@CGameHelp@@MBEPBUAFX_INTERFACEMAP@@XZ ; CGameHelp::GetInterfaceMap
PUBLIC	??_GCGameHelp@@UAEPAXI@Z			; CGameHelp::`scalar deleting destructor'
PUBLIC	??_R1A@?0A@EA@CObject@@8			; CObject::`RTTI Base Class Descriptor at (0,-1,0,64)'
PUBLIC	??_R0?AVCObject@@@8				; CObject `RTTI Type Descriptor'
PUBLIC	??_R3CObject@@8					; CObject::`RTTI Class Hierarchy Descriptor'
PUBLIC	??_R2CObject@@8					; CObject::`RTTI Base Class Array'
PUBLIC	??_R1A@?0A@EA@CDialog@@8			; CDialog::`RTTI Base Class Descriptor at (0,-1,0,64)'
PUBLIC	??_R0?AVCDialog@@@8				; CDialog `RTTI Type Descriptor'
PUBLIC	??_R3CDialog@@8					; CDialog::`RTTI Class Hierarchy Descriptor'
PUBLIC	??_R2CDialog@@8					; CDialog::`RTTI Base Class Array'
PUBLIC	??_R1A@?0A@EA@CWnd@@8				; CWnd::`RTTI Base Class Descriptor at (0,-1,0,64)'
PUBLIC	??_R0?AVCWnd@@@8				; CWnd `RTTI Type Descriptor'
PUBLIC	??_R3CWnd@@8					; CWnd::`RTTI Class Hierarchy Descriptor'
PUBLIC	??_R2CWnd@@8					; CWnd::`RTTI Base Class Array'
PUBLIC	??_R1A@?0A@EA@CCmdTarget@@8			; CCmdTarget::`RTTI Base Class Descriptor at (0,-1,0,64)'
PUBLIC	??_R0?AVCCmdTarget@@@8				; CCmdTarget `RTTI Type Descriptor'
PUBLIC	??_R3CCmdTarget@@8				; CCmdTarget::`RTTI Class Hierarchy Descriptor'
PUBLIC	??_R2CCmdTarget@@8				; CCmdTarget::`RTTI Base Class Array'
PUBLIC	?classCGameHelp@CGameHelp@@2UCRuntimeClass@@B	; CGameHelp::classCGameHelp
PUBLIC	?dispatchMap@CGameHelp@@1UAFX_DISPMAP@@B	; CGameHelp::dispatchMap
PUBLIC	?interfaceMap@CGameHelp@@1UAFX_INTERFACEMAP@@B	; CGameHelp::interfaceMap
PUBLIC	??_7CGameHelp@@6B@				; CGameHelp::`vftable'
PUBLIC	??_C@_09HHJLAJAG@CGameHelp?$AA@			; `string'
PUBLIC	??_R4CGameHelp@@6B@				; CGameHelp::`RTTI Complete Object Locator'
PUBLIC	??_R0?AVCGameHelp@@@8				; CGameHelp `RTTI Type Descriptor'
PUBLIC	??_R3CGameHelp@@8				; CGameHelp::`RTTI Class Hierarchy Descriptor'
PUBLIC	??_R2CGameHelp@@8				; CGameHelp::`RTTI Base Class Array'
PUBLIC	??_R1A@?0A@EA@CGameHelp@@8			; CGameHelp::`RTTI Base Class Descriptor at (0,-1,0,64)'
PUBLIC	??_R1A@?0A@EA@CDialogEx@@8			; CDialogEx::`RTTI Base Class Descriptor at (0,-1,0,64)'
PUBLIC	??_R0?AVCDialogEx@@@8				; CDialogEx `RTTI Type Descriptor'
PUBLIC	??_R3CDialogEx@@8				; CDialogEx::`RTTI Class Hierarchy Descriptor'
PUBLIC	??_R2CDialogEx@@8				; CDialogEx::`RTTI Base Class Array'
EXTRN	?__global_delete@@YAXPAXI@Z:PROC		; __global_delete
EXTRN	??3CObject@@SGXPAX@Z:PROC			; CObject::operator delete
EXTRN	?Serialize@CObject@@UAEXAAVCArchive@@@Z:PROC	; CObject::Serialize
EXTRN	??1CBrush@@UAE@XZ:PROC				; CBrush::~CBrush
EXTRN	?EnableAutomation@CCmdTarget@@QAEXXZ:PROC	; CCmdTarget::EnableAutomation
EXTRN	?IsInvokeAllowed@CCmdTarget@@UAEHJ@Z:PROC	; CCmdTarget::IsInvokeAllowed
EXTRN	?GetDispatchIID@CCmdTarget@@UAEHPAU_GUID@@@Z:PROC ; CCmdTarget::GetDispatchIID
EXTRN	?GetTypeInfoCount@CCmdTarget@@UAEIXZ:PROC	; CCmdTarget::GetTypeInfoCount
EXTRN	?GetTypeLibCache@CCmdTarget@@UAEPAVCTypeLibCache@@XZ:PROC ; CCmdTarget::GetTypeLibCache
EXTRN	?GetTypeLib@CCmdTarget@@UAEJKPAPAUITypeLib@@@Z:PROC ; CCmdTarget::GetTypeLib
EXTRN	?GetCommandMap@CCmdTarget@@MBEPBUAFX_OLECMDMAP@@XZ:PROC ; CCmdTarget::GetCommandMap
EXTRN	?GetThisDispatchMap@CCmdTarget@@KGPBUAFX_DISPMAP@@XZ:PROC ; CCmdTarget::GetThisDispatchMap
EXTRN	?GetConnectionMap@CCmdTarget@@MBEPBUAFX_CONNECTIONMAP@@XZ:PROC ; CCmdTarget::GetConnectionMap
EXTRN	?GetEventSinkMap@CCmdTarget@@MBEPBUAFX_EVENTSINKMAP@@XZ:PROC ; CCmdTarget::GetEventSinkMap
EXTRN	?OnCreateAggregates@CCmdTarget@@UAEHXZ:PROC	; CCmdTarget::OnCreateAggregates
EXTRN	?GetInterfaceHook@CCmdTarget@@UAEPAUIUnknown@@PBX@Z:PROC ; CCmdTarget::GetInterfaceHook
EXTRN	?GetExtraConnectionPoints@CCmdTarget@@MAEHPAVCPtrArray@@@Z:PROC ; CCmdTarget::GetExtraConnectionPoints
EXTRN	?GetConnectionHook@CCmdTarget@@MAEPAUIConnectionPoint@@ABU_GUID@@@Z:PROC ; CCmdTarget::GetConnectionHook
EXTRN	?PreSubclassWindow@CWnd@@UAEXXZ:PROC		; CWnd::PreSubclassWindow
EXTRN	?Create@CWnd@@UAEHPB_W0KABUtagRECT@@PAV1@IPAUCCreateContext@@@Z:PROC ; CWnd::Create
EXTRN	?CreateEx@CWnd@@UAEHKPB_W0KHHHHPAUHWND__@@PAUHMENU__@@PAX@Z:PROC ; CWnd::CreateEx
EXTRN	?CreateEx@CWnd@@UAEHKPB_W0KABUtagRECT@@PAV1@IPAX@Z:PROC ; CWnd::CreateEx
EXTRN	?DestroyWindow@CWnd@@UAEHXZ:PROC		; CWnd::DestroyWindow
EXTRN	?PreCreateWindow@CWnd@@UAEHAAUtagCREATESTRUCTW@@@Z:PROC ; CWnd::PreCreateWindow
EXTRN	?CalcWindowRect@CWnd@@UAEXPAUtagRECT@@I@Z:PROC	; CWnd::CalcWindowRect
EXTRN	?GetMenu@CWnd@@UBEPAVCMenu@@XZ:PROC		; CWnd::GetMenu
EXTRN	?SetMenu@CWnd@@UAEHPAVCMenu@@@Z:PROC		; CWnd::SetMenu
EXTRN	?OnToolHitTest@CWnd@@UBEHVCPoint@@PAUtagTOOLINFOW@@@Z:PROC ; CWnd::OnToolHitTest
EXTRN	?GetScrollBarCtrl@CWnd@@UBEPAVCScrollBar@@H@Z:PROC ; CWnd::GetScrollBarCtrl
EXTRN	?WinHelpW@CWnd@@UAEXKI@Z:PROC			; CWnd::WinHelpW
EXTRN	?HtmlHelpW@CWnd@@UAEXKI@Z:PROC			; CWnd::HtmlHelpW
EXTRN	?WinHelpInternal@CWnd@@UAEXKI@Z:PROC		; CWnd::WinHelpInternal
EXTRN	?ContinueModal@CWnd@@UAEHXZ:PROC		; CWnd::ContinueModal
EXTRN	?EndModalLoop@CWnd@@UAEXH@Z:PROC		; CWnd::EndModalLoop
EXTRN	?OnDrawIconicThumbnailOrLivePreview@CWnd@@UAEXAAVCDC@@VCRect@@VCSize@@HAAH@Z:PROC ; CWnd::OnDrawIconicThumbnailOrLivePreview
EXTRN	?GetThisInterfaceMap@CWnd@@KGPBUAFX_INTERFACEMAP@@XZ:PROC ; CWnd::GetThisInterfaceMap
EXTRN	?EnsureStdObj@CWnd@@UAEJXZ:PROC			; CWnd::EnsureStdObj
EXTRN	?get_accParent@CWnd@@UAEJPAPAUIDispatch@@@Z:PROC ; CWnd::get_accParent
EXTRN	?get_accChildCount@CWnd@@UAEJPAJ@Z:PROC		; CWnd::get_accChildCount
EXTRN	?get_accChild@CWnd@@UAEJUtagVARIANT@@PAPAUIDispatch@@@Z:PROC ; CWnd::get_accChild
EXTRN	?get_accName@CWnd@@UAEJUtagVARIANT@@PAPA_W@Z:PROC ; CWnd::get_accName
EXTRN	?get_accValue@CWnd@@UAEJUtagVARIANT@@PAPA_W@Z:PROC ; CWnd::get_accValue
EXTRN	?get_accDescription@CWnd@@UAEJUtagVARIANT@@PAPA_W@Z:PROC ; CWnd::get_accDescription
EXTRN	?get_accRole@CWnd@@UAEJUtagVARIANT@@PAU2@@Z:PROC ; CWnd::get_accRole
EXTRN	?get_accState@CWnd@@UAEJUtagVARIANT@@PAU2@@Z:PROC ; CWnd::get_accState
EXTRN	?get_accHelp@CWnd@@UAEJUtagVARIANT@@PAPA_W@Z:PROC ; CWnd::get_accHelp
EXTRN	?get_accHelpTopic@CWnd@@UAEJPAPA_WUtagVARIANT@@PAJ@Z:PROC ; CWnd::get_accHelpTopic
EXTRN	?get_accKeyboardShortcut@CWnd@@UAEJUtagVARIANT@@PAPA_W@Z:PROC ; CWnd::get_accKeyboardShortcut
EXTRN	?get_accFocus@CWnd@@UAEJPAUtagVARIANT@@@Z:PROC	; CWnd::get_accFocus
EXTRN	?get_accSelection@CWnd@@UAEJPAUtagVARIANT@@@Z:PROC ; CWnd::get_accSelection
EXTRN	?get_accDefaultAction@CWnd@@UAEJUtagVARIANT@@PAPA_W@Z:PROC ; CWnd::get_accDefaultAction
EXTRN	?accSelect@CWnd@@UAEJJUtagVARIANT@@@Z:PROC	; CWnd::accSelect
EXTRN	?accLocation@CWnd@@UAEJPAJ000UtagVARIANT@@@Z:PROC ; CWnd::accLocation
EXTRN	?accNavigate@CWnd@@UAEJJUtagVARIANT@@PAU2@@Z:PROC ; CWnd::accNavigate
EXTRN	?accHitTest@CWnd@@UAEJJJPAUtagVARIANT@@@Z:PROC	; CWnd::accHitTest
EXTRN	?accDoDefaultAction@CWnd@@UAEJUtagVARIANT@@@Z:PROC ; CWnd::accDoDefaultAction
EXTRN	?put_accName@CWnd@@UAEJUtagVARIANT@@PA_W@Z:PROC	; CWnd::put_accName
EXTRN	?put_accValue@CWnd@@UAEJUtagVARIANT@@PA_W@Z:PROC ; CWnd::put_accValue
EXTRN	?SetProxy@CWnd@@UAEJPAUIAccessibleProxy@@@Z:PROC ; CWnd::SetProxy
EXTRN	?CreateAccessibleProxy@CWnd@@UAEJIJPAJ@Z:PROC	; CWnd::CreateAccessibleProxy
EXTRN	?OnNotify@CWnd@@MAEHIJPAJ@Z:PROC		; CWnd::OnNotify
EXTRN	?GetSuperWndProcAddr@CWnd@@MAEPAP6GJPAUHWND__@@IIJ@ZXZ:PROC ; CWnd::GetSuperWndProcAddr
EXTRN	?DoDataExchange@CWnd@@MAEXPAVCDataExchange@@@Z:PROC ; CWnd::DoDataExchange
EXTRN	?BeginModalState@CWnd@@UAEXXZ:PROC		; CWnd::BeginModalState
EXTRN	?EndModalState@CWnd@@UAEXXZ:PROC		; CWnd::EndModalState
EXTRN	?OnAmbientProperty@CWnd@@UAEHPAVCOleControlSite@@JPAUtagVARIANT@@@Z:PROC ; CWnd::OnAmbientProperty
EXTRN	?WindowProc@CWnd@@MAEJIIJ@Z:PROC		; CWnd::WindowProc
EXTRN	?OnWndMsg@CWnd@@MAEHIIJPAJ@Z:PROC		; CWnd::OnWndMsg
EXTRN	?DefWindowProcW@CWnd@@MAEJIIJ@Z:PROC		; CWnd::DefWindowProcW
EXTRN	?PostNcDestroy@CWnd@@MAEXXZ:PROC		; CWnd::PostNcDestroy
EXTRN	?OnChildNotify@CWnd@@MAEHIIJPAJ@Z:PROC		; CWnd::OnChildNotify
EXTRN	?OnTouchInputs@CWnd@@MAEHIPAUtagTOUCHINPUT@@@Z:PROC ; CWnd::OnTouchInputs
EXTRN	?OnTouchInput@CWnd@@MAEHVCPoint@@HHPAUtagTOUCHINPUT@@@Z:PROC ; CWnd::OnTouchInput
EXTRN	?GetGestureStatus@CWnd@@MAEKVCPoint@@@Z:PROC	; CWnd::GetGestureStatus
EXTRN	?OnGestureZoom@CWnd@@MAEHVCPoint@@J@Z:PROC	; CWnd::OnGestureZoom
EXTRN	?OnGesturePan@CWnd@@MAEHVCPoint@@0@Z:PROC	; CWnd::OnGesturePan
EXTRN	?OnGestureRotate@CWnd@@MAEHVCPoint@@N@Z:PROC	; CWnd::OnGestureRotate
EXTRN	?OnGestureTwoFingerTap@CWnd@@MAEHVCPoint@@@Z:PROC ; CWnd::OnGestureTwoFingerTap
EXTRN	?OnGesturePressAndTap@CWnd@@MAEHVCPoint@@J@Z:PROC ; CWnd::OnGesturePressAndTap
EXTRN	?ResizeDynamicLayout@CWnd@@MAEXXZ:PROC		; CWnd::ResizeDynamicLayout
EXTRN	?IsFrameWnd@CWnd@@UBEHXZ:PROC			; CWnd::IsFrameWnd
EXTRN	?OnFinalRelease@CWnd@@UAEXXZ:PROC		; CWnd::OnFinalRelease
EXTRN	?CreateControlContainer@CWnd@@MAEHPAPAVCOleControlContainer@@@Z:PROC ; CWnd::CreateControlContainer
EXTRN	?CreateControlSite@CWnd@@MAEHPAVCOleControlContainer@@PAPAVCOleControlSite@@IABU_GUID@@@Z:PROC ; CWnd::CreateControlSite
EXTRN	?Create@CDialog@@UAEHPB_WPAVCWnd@@@Z:PROC	; CDialog::Create
EXTRN	?Create@CDialog@@UAEHIPAVCWnd@@@Z:PROC		; CDialog::Create
EXTRN	?CreateIndirect@CDialog@@UAEHPBUDLGTEMPLATE@@PAVCWnd@@PAX@Z:PROC ; CDialog::CreateIndirect
EXTRN	?CreateIndirect@CDialog@@UAEHPAXPAVCWnd@@@Z:PROC ; CDialog::CreateIndirect
EXTRN	?DoModal@CDialog@@UAEHXZ:PROC			; CDialog::DoModal
EXTRN	?OnInitDialog@CDialog@@UAEHXZ:PROC		; CDialog::OnInitDialog
EXTRN	?OnSetFont@CDialog@@UAEXPAVCFont@@@Z:PROC	; CDialog::OnSetFont
EXTRN	?OnOK@CDialog@@MAEXXZ:PROC			; CDialog::OnOK
EXTRN	?OnCancel@CDialog@@MAEXXZ:PROC			; CDialog::OnCancel
EXTRN	??1CDialog@@UAE@XZ:PROC				; CDialog::~CDialog
EXTRN	?AssertValid@CDialog@@UBEXXZ:PROC		; CDialog::AssertValid
EXTRN	?Dump@CDialog@@UBEXAAVCDumpContext@@@Z:PROC	; CDialog::Dump
EXTRN	?OnCmdMsg@CDialog@@UAEHIHPAXPAUAFX_CMDHANDLERINFO@@@Z:PROC ; CDialog::OnCmdMsg
EXTRN	?CheckAutoCenter@CDialog@@UAEHXZ:PROC		; CDialog::CheckAutoCenter
EXTRN	?SetOccDialogInfo@CDialog@@MAEHPAU_AFX_OCC_DIALOG_INFO@@@Z:PROC ; CDialog::SetOccDialogInfo
EXTRN	?GetOccDialogInfo@CDialog@@MAEPAU_AFX_OCC_DIALOG_INFO@@XZ:PROC ; CDialog::GetOccDialogInfo
EXTRN	?PreInitDialog@CDialog@@MAEXXZ:PROC		; CDialog::PreInitDialog
EXTRN	??1CDialogImpl@@MAE@XZ:PROC			; CDialogImpl::~CDialogImpl
EXTRN	?GetThisClass@CDialogEx@@SGPAUCRuntimeClass@@XZ:PROC ; CDialogEx::GetThisClass
EXTRN	??0CDialogEx@@QAE@IPAVCWnd@@@Z:PROC		; CDialogEx::CDialogEx
EXTRN	?PreTranslateMessage@CDialogEx@@UAEHPAUtagMSG@@@Z:PROC ; CDialogEx::PreTranslateMessage
EXTRN	?OnCommand@CDialogEx@@MAEHIJ@Z:PROC		; CDialogEx::OnCommand
EXTRN	??_ECGameHelp@@UAEPAXI@Z:PROC			; CGameHelp::`vector deleting destructor'
EXTRN	@__security_check_cookie@4:PROC
EXTRN	___CxxFrameHandler3:PROC
EXTRN	??_7type_info@@6B@:QWORD			; type_info::`vftable'
EXTRN	___security_cookie:DWORD
;	COMDAT ??_R2CDialogEx@@8
rdata$r	SEGMENT
??_R2CDialogEx@@8 DD FLAT:??_R1A@?0A@EA@CDialogEx@@8	; CDialogEx::`RTTI Base Class Array'
	DD	FLAT:??_R1A@?0A@EA@CDialog@@8
	DD	FLAT:??_R1A@?0A@EA@CWnd@@8
	DD	FLAT:??_R1A@?0A@EA@CCmdTarget@@8
	DD	FLAT:??_R1A@?0A@EA@CObject@@8
rdata$r	ENDS
;	COMDAT ??_R3CDialogEx@@8
rdata$r	SEGMENT
??_R3CDialogEx@@8 DD 00H				; CDialogEx::`RTTI Class Hierarchy Descriptor'
	DD	00H
	DD	05H
	DD	FLAT:??_R2CDialogEx@@8
rdata$r	ENDS
;	COMDAT ??_R0?AVCDialogEx@@@8
data$r	SEGMENT
??_R0?AVCDialogEx@@@8 DD FLAT:??_7type_info@@6B@	; CDialogEx `RTTI Type Descriptor'
	DD	00H
	DB	'.?AVCDialogEx@@', 00H
data$r	ENDS
;	COMDAT ??_R1A@?0A@EA@CDialogEx@@8
rdata$r	SEGMENT
??_R1A@?0A@EA@CDialogEx@@8 DD FLAT:??_R0?AVCDialogEx@@@8 ; CDialogEx::`RTTI Base Class Descriptor at (0,-1,0,64)'
	DD	04H
	DD	00H
	DD	0ffffffffH
	DD	00H
	DD	040H
	DD	FLAT:??_R3CDialogEx@@8
rdata$r	ENDS
;	COMDAT ??_R1A@?0A@EA@CGameHelp@@8
rdata$r	SEGMENT
??_R1A@?0A@EA@CGameHelp@@8 DD FLAT:??_R0?AVCGameHelp@@@8 ; CGameHelp::`RTTI Base Class Descriptor at (0,-1,0,64)'
	DD	05H
	DD	00H
	DD	0ffffffffH
	DD	00H
	DD	040H
	DD	FLAT:??_R3CGameHelp@@8
rdata$r	ENDS
;	COMDAT ??_R2CGameHelp@@8
rdata$r	SEGMENT
??_R2CGameHelp@@8 DD FLAT:??_R1A@?0A@EA@CGameHelp@@8	; CGameHelp::`RTTI Base Class Array'
	DD	FLAT:??_R1A@?0A@EA@CDialogEx@@8
	DD	FLAT:??_R1A@?0A@EA@CDialog@@8
	DD	FLAT:??_R1A@?0A@EA@CWnd@@8
	DD	FLAT:??_R1A@?0A@EA@CCmdTarget@@8
	DD	FLAT:??_R1A@?0A@EA@CObject@@8
rdata$r	ENDS
;	COMDAT ??_R3CGameHelp@@8
rdata$r	SEGMENT
??_R3CGameHelp@@8 DD 00H				; CGameHelp::`RTTI Class Hierarchy Descriptor'
	DD	00H
	DD	06H
	DD	FLAT:??_R2CGameHelp@@8
rdata$r	ENDS
;	COMDAT ??_R0?AVCGameHelp@@@8
data$r	SEGMENT
??_R0?AVCGameHelp@@@8 DD FLAT:??_7type_info@@6B@	; CGameHelp `RTTI Type Descriptor'
	DD	00H
	DB	'.?AVCGameHelp@@', 00H
data$r	ENDS
;	COMDAT ??_R4CGameHelp@@6B@
rdata$r	SEGMENT
??_R4CGameHelp@@6B@ DD 00H				; CGameHelp::`RTTI Complete Object Locator'
	DD	00H
	DD	00H
	DD	FLAT:??_R0?AVCGameHelp@@@8
	DD	FLAT:??_R3CGameHelp@@8
rdata$r	ENDS
;	COMDAT ??_C@_09HHJLAJAG@CGameHelp?$AA@
CONST	SEGMENT
??_C@_09HHJLAJAG@CGameHelp?$AA@ DB 'CGameHelp', 00H	; `string'
CONST	ENDS
;	COMDAT ??_7CGameHelp@@6B@
CONST	SEGMENT
??_7CGameHelp@@6B@ DD FLAT:??_R4CGameHelp@@6B@		; CGameHelp::`vftable'
	DD	FLAT:?GetRuntimeClass@CGameHelp@@UBEPAUCRuntimeClass@@XZ
	DD	FLAT:??_ECGameHelp@@UAEPAXI@Z
	DD	FLAT:?Serialize@CObject@@UAEXAAVCArchive@@@Z
	DD	FLAT:?AssertValid@CDialog@@UBEXXZ
	DD	FLAT:?Dump@CDialog@@UBEXAAVCDumpContext@@@Z
	DD	FLAT:?OnCmdMsg@CDialog@@UAEHIHPAXPAUAFX_CMDHANDLERINFO@@@Z
	DD	FLAT:?OnFinalRelease@CGameHelp@@UAEXXZ
	DD	FLAT:?IsInvokeAllowed@CCmdTarget@@UAEHJ@Z
	DD	FLAT:?GetDispatchIID@CCmdTarget@@UAEHPAU_GUID@@@Z
	DD	FLAT:?GetTypeInfoCount@CCmdTarget@@UAEIXZ
	DD	FLAT:?GetTypeLibCache@CCmdTarget@@UAEPAVCTypeLibCache@@XZ
	DD	FLAT:?GetTypeLib@CCmdTarget@@UAEJKPAPAUITypeLib@@@Z
	DD	FLAT:?GetMessageMap@CGameHelp@@MBEPBUAFX_MSGMAP@@XZ
	DD	FLAT:?GetCommandMap@CCmdTarget@@MBEPBUAFX_OLECMDMAP@@XZ
	DD	FLAT:?GetDispatchMap@CGameHelp@@MBEPBUAFX_DISPMAP@@XZ
	DD	FLAT:?GetConnectionMap@CCmdTarget@@MBEPBUAFX_CONNECTIONMAP@@XZ
	DD	FLAT:?GetInterfaceMap@CGameHelp@@MBEPBUAFX_INTERFACEMAP@@XZ
	DD	FLAT:?GetEventSinkMap@CCmdTarget@@MBEPBUAFX_EVENTSINKMAP@@XZ
	DD	FLAT:?OnCreateAggregates@CCmdTarget@@UAEHXZ
	DD	FLAT:?GetInterfaceHook@CCmdTarget@@UAEPAUIUnknown@@PBX@Z
	DD	FLAT:?GetExtraConnectionPoints@CCmdTarget@@MAEHPAVCPtrArray@@@Z
	DD	FLAT:?GetConnectionHook@CCmdTarget@@MAEPAUIConnectionPoint@@ABU_GUID@@@Z
	DD	FLAT:?PreSubclassWindow@CWnd@@UAEXXZ
	DD	FLAT:?Create@CWnd@@UAEHPB_W0KABUtagRECT@@PAV1@IPAUCCreateContext@@@Z
	DD	FLAT:?CreateEx@CWnd@@UAEHKPB_W0KABUtagRECT@@PAV1@IPAX@Z
	DD	FLAT:?CreateEx@CWnd@@UAEHKPB_W0KHHHHPAUHWND__@@PAUHMENU__@@PAX@Z
	DD	FLAT:?DestroyWindow@CWnd@@UAEHXZ
	DD	FLAT:?PreCreateWindow@CWnd@@UAEHAAUtagCREATESTRUCTW@@@Z
	DD	FLAT:?CalcWindowRect@CWnd@@UAEXPAUtagRECT@@I@Z
	DD	FLAT:?GetMenu@CWnd@@UBEPAVCMenu@@XZ
	DD	FLAT:?SetMenu@CWnd@@UAEHPAVCMenu@@@Z
	DD	FLAT:?OnToolHitTest@CWnd@@UBEHVCPoint@@PAUtagTOOLINFOW@@@Z
	DD	FLAT:?GetScrollBarCtrl@CWnd@@UBEPAVCScrollBar@@H@Z
	DD	FLAT:?WinHelpW@CWnd@@UAEXKI@Z
	DD	FLAT:?HtmlHelpW@CWnd@@UAEXKI@Z
	DD	FLAT:?WinHelpInternal@CWnd@@UAEXKI@Z
	DD	FLAT:?ContinueModal@CWnd@@UAEHXZ
	DD	FLAT:?EndModalLoop@CWnd@@UAEXH@Z
	DD	FLAT:?OnDrawIconicThumbnailOrLivePreview@CWnd@@UAEXAAVCDC@@VCRect@@VCSize@@HAAH@Z
	DD	FLAT:?EnsureStdObj@CWnd@@UAEJXZ
	DD	FLAT:?get_accParent@CWnd@@UAEJPAPAUIDispatch@@@Z
	DD	FLAT:?get_accChildCount@CWnd@@UAEJPAJ@Z
	DD	FLAT:?get_accChild@CWnd@@UAEJUtagVARIANT@@PAPAUIDispatch@@@Z
	DD	FLAT:?get_accName@CWnd@@UAEJUtagVARIANT@@PAPA_W@Z
	DD	FLAT:?get_accValue@CWnd@@UAEJUtagVARIANT@@PAPA_W@Z
	DD	FLAT:?get_accDescription@CWnd@@UAEJUtagVARIANT@@PAPA_W@Z
	DD	FLAT:?get_accRole@CWnd@@UAEJUtagVARIANT@@PAU2@@Z
	DD	FLAT:?get_accState@CWnd@@UAEJUtagVARIANT@@PAU2@@Z
	DD	FLAT:?get_accHelp@CWnd@@UAEJUtagVARIANT@@PAPA_W@Z
	DD	FLAT:?get_accHelpTopic@CWnd@@UAEJPAPA_WUtagVARIANT@@PAJ@Z
	DD	FLAT:?get_accKeyboardShortcut@CWnd@@UAEJUtagVARIANT@@PAPA_W@Z
	DD	FLAT:?get_accFocus@CWnd@@UAEJPAUtagVARIANT@@@Z
	DD	FLAT:?get_accSelection@CWnd@@UAEJPAUtagVARIANT@@@Z
	DD	FLAT:?get_accDefaultAction@CWnd@@UAEJUtagVARIANT@@PAPA_W@Z
	DD	FLAT:?accSelect@CWnd@@UAEJJUtagVARIANT@@@Z
	DD	FLAT:?accLocation@CWnd@@UAEJPAJ000UtagVARIANT@@@Z
	DD	FLAT:?accNavigate@CWnd@@UAEJJUtagVARIANT@@PAU2@@Z
	DD	FLAT:?accHitTest@CWnd@@UAEJJJPAUtagVARIANT@@@Z
	DD	FLAT:?accDoDefaultAction@CWnd@@UAEJUtagVARIANT@@@Z
	DD	FLAT:?put_accName@CWnd@@UAEJUtagVARIANT@@PA_W@Z
	DD	FLAT:?put_accValue@CWnd@@UAEJUtagVARIANT@@PA_W@Z
	DD	FLAT:?SetProxy@CWnd@@UAEJPAUIAccessibleProxy@@@Z
	DD	FLAT:?CreateAccessibleProxy@CWnd@@UAEJIJPAJ@Z
	DD	FLAT:?OnCommand@CDialogEx@@MAEHIJ@Z
	DD	FLAT:?OnNotify@CWnd@@MAEHIJPAJ@Z
	DD	FLAT:?GetSuperWndProcAddr@CWnd@@MAEPAP6GJPAUHWND__@@IIJ@ZXZ
	DD	FLAT:?DoDataExchange@CGameHelp@@MAEXPAVCDataExchange@@@Z
	DD	FLAT:?BeginModalState@CWnd@@UAEXXZ
	DD	FLAT:?EndModalState@CWnd@@UAEXXZ
	DD	FLAT:?PreTranslateMessage@CDialogEx@@UAEHPAUtagMSG@@@Z
	DD	FLAT:?OnAmbientProperty@CWnd@@UAEHPAVCOleControlSite@@JPAUtagVARIANT@@@Z
	DD	FLAT:?WindowProc@CWnd@@MAEJIIJ@Z
	DD	FLAT:?OnWndMsg@CWnd@@MAEHIIJPAJ@Z
	DD	FLAT:?DefWindowProcW@CWnd@@MAEJIIJ@Z
	DD	FLAT:?PostNcDestroy@CWnd@@MAEXXZ
	DD	FLAT:?OnChildNotify@CWnd@@MAEHIIJPAJ@Z
	DD	FLAT:?OnTouchInputs@CWnd@@MAEHIPAUtagTOUCHINPUT@@@Z
	DD	FLAT:?OnTouchInput@CWnd@@MAEHVCPoint@@HHPAUtagTOUCHINPUT@@@Z
	DD	FLAT:?GetGestureStatus@CWnd@@MAEKVCPoint@@@Z
	DD	FLAT:?OnGestureZoom@CWnd@@MAEHVCPoint@@J@Z
	DD	FLAT:?OnGesturePan@CWnd@@MAEHVCPoint@@0@Z
	DD	FLAT:?OnGestureRotate@CWnd@@MAEHVCPoint@@N@Z
	DD	FLAT:?OnGestureTwoFingerTap@CWnd@@MAEHVCPoint@@@Z
	DD	FLAT:?OnGesturePressAndTap@CWnd@@MAEHVCPoint@@J@Z
	DD	FLAT:?ResizeDynamicLayout@CWnd@@MAEXXZ
	DD	FLAT:?CheckAutoCenter@CDialog@@UAEHXZ
	DD	FLAT:?IsFrameWnd@CWnd@@UBEHXZ
	DD	FLAT:?CreateControlContainer@CWnd@@MAEHPAPAVCOleControlContainer@@@Z
	DD	FLAT:?CreateControlSite@CWnd@@MAEHPAVCOleControlContainer@@PAPAVCOleControlSite@@IABU_GUID@@@Z
	DD	FLAT:?SetOccDialogInfo@CDialog@@MAEHPAU_AFX_OCC_DIALOG_INFO@@@Z
	DD	FLAT:?GetOccDialogInfo@CDialog@@MAEPAU_AFX_OCC_DIALOG_INFO@@XZ
	DD	FLAT:?Create@CDialog@@UAEHIPAVCWnd@@@Z
	DD	FLAT:?Create@CDialog@@UAEHPB_WPAVCWnd@@@Z
	DD	FLAT:?CreateIndirect@CDialog@@UAEHPAXPAVCWnd@@@Z
	DD	FLAT:?CreateIndirect@CDialog@@UAEHPBUDLGTEMPLATE@@PAVCWnd@@PAX@Z
	DD	FLAT:?DoModal@CDialog@@UAEHXZ
	DD	FLAT:?OnInitDialog@CDialog@@UAEHXZ
	DD	FLAT:?OnSetFont@CDialog@@UAEXPAVCFont@@@Z
	DD	FLAT:?OnOK@CDialog@@MAEXXZ
	DD	FLAT:?OnCancel@CDialog@@MAEXXZ
	DD	FLAT:?PreInitDialog@CDialog@@MAEXXZ
CONST	ENDS
;	COMDAT ?interfaceMap@CGameHelp@@1UAFX_INTERFACEMAP@@B
CONST	SEGMENT
?interfaceMap@CGameHelp@@1UAFX_INTERFACEMAP@@B DD FLAT:?GetThisInterfaceMap@CWnd@@KGPBUAFX_INTERFACEMAP@@XZ ; CGameHelp::interfaceMap
	DD	FLAT:?_interfaceEntries@CGameHelp@@0QBUAFX_INTERFACEMAP_ENTRY@@B
CONST	ENDS
;	COMDAT ?dispatchMap@CGameHelp@@1UAFX_DISPMAP@@B
CONST	SEGMENT
?dispatchMap@CGameHelp@@1UAFX_DISPMAP@@B DD FLAT:?GetThisDispatchMap@CCmdTarget@@KGPBUAFX_DISPMAP@@XZ ; CGameHelp::dispatchMap
	DD	FLAT:?_dispatchEntries@CGameHelp@@0QBUAFX_DISPMAP_ENTRY@@B
	DD	FLAT:?_dispatchEntryCount@CGameHelp@@0IA
	DD	FLAT:?_dwStockPropMask@CGameHelp@@0KA
CONST	ENDS
;	COMDAT ?classCGameHelp@CGameHelp@@2UCRuntimeClass@@B
CONST	SEGMENT
?classCGameHelp@CGameHelp@@2UCRuntimeClass@@B DD FLAT:??_C@_09HHJLAJAG@CGameHelp?$AA@ ; CGameHelp::classCGameHelp
	DD	0d0H
	DD	0ffffH
	DD	00H
	DD	FLAT:?_GetBaseClass@CGameHelp@@KGPAUCRuntimeClass@@XZ
	DD	00H
	DD	00H
CONST	ENDS
;	COMDAT ??_R2CCmdTarget@@8
rdata$r	SEGMENT
??_R2CCmdTarget@@8 DD FLAT:??_R1A@?0A@EA@CCmdTarget@@8	; CCmdTarget::`RTTI Base Class Array'
	DD	FLAT:??_R1A@?0A@EA@CObject@@8
rdata$r	ENDS
;	COMDAT ??_R3CCmdTarget@@8
rdata$r	SEGMENT
??_R3CCmdTarget@@8 DD 00H				; CCmdTarget::`RTTI Class Hierarchy Descriptor'
	DD	00H
	DD	02H
	DD	FLAT:??_R2CCmdTarget@@8
rdata$r	ENDS
;	COMDAT ??_R0?AVCCmdTarget@@@8
data$r	SEGMENT
??_R0?AVCCmdTarget@@@8 DD FLAT:??_7type_info@@6B@	; CCmdTarget `RTTI Type Descriptor'
	DD	00H
	DB	'.?AVCCmdTarget@@', 00H
data$r	ENDS
;	COMDAT ??_R1A@?0A@EA@CCmdTarget@@8
rdata$r	SEGMENT
??_R1A@?0A@EA@CCmdTarget@@8 DD FLAT:??_R0?AVCCmdTarget@@@8 ; CCmdTarget::`RTTI Base Class Descriptor at (0,-1,0,64)'
	DD	01H
	DD	00H
	DD	0ffffffffH
	DD	00H
	DD	040H
	DD	FLAT:??_R3CCmdTarget@@8
rdata$r	ENDS
;	COMDAT ??_R2CWnd@@8
rdata$r	SEGMENT
??_R2CWnd@@8 DD	FLAT:??_R1A@?0A@EA@CWnd@@8		; CWnd::`RTTI Base Class Array'
	DD	FLAT:??_R1A@?0A@EA@CCmdTarget@@8
	DD	FLAT:??_R1A@?0A@EA@CObject@@8
rdata$r	ENDS
;	COMDAT ??_R3CWnd@@8
rdata$r	SEGMENT
??_R3CWnd@@8 DD	00H					; CWnd::`RTTI Class Hierarchy Descriptor'
	DD	00H
	DD	03H
	DD	FLAT:??_R2CWnd@@8
rdata$r	ENDS
;	COMDAT ??_R0?AVCWnd@@@8
data$r	SEGMENT
??_R0?AVCWnd@@@8 DD FLAT:??_7type_info@@6B@		; CWnd `RTTI Type Descriptor'
	DD	00H
	DB	'.?AVCWnd@@', 00H
data$r	ENDS
;	COMDAT ??_R1A@?0A@EA@CWnd@@8
rdata$r	SEGMENT
??_R1A@?0A@EA@CWnd@@8 DD FLAT:??_R0?AVCWnd@@@8		; CWnd::`RTTI Base Class Descriptor at (0,-1,0,64)'
	DD	02H
	DD	00H
	DD	0ffffffffH
	DD	00H
	DD	040H
	DD	FLAT:??_R3CWnd@@8
rdata$r	ENDS
;	COMDAT ??_R2CDialog@@8
rdata$r	SEGMENT
??_R2CDialog@@8 DD FLAT:??_R1A@?0A@EA@CDialog@@8	; CDialog::`RTTI Base Class Array'
	DD	FLAT:??_R1A@?0A@EA@CWnd@@8
	DD	FLAT:??_R1A@?0A@EA@CCmdTarget@@8
	DD	FLAT:??_R1A@?0A@EA@CObject@@8
rdata$r	ENDS
;	COMDAT ??_R3CDialog@@8
rdata$r	SEGMENT
??_R3CDialog@@8 DD 00H					; CDialog::`RTTI Class Hierarchy Descriptor'
	DD	00H
	DD	04H
	DD	FLAT:??_R2CDialog@@8
rdata$r	ENDS
;	COMDAT ??_R0?AVCDialog@@@8
data$r	SEGMENT
??_R0?AVCDialog@@@8 DD FLAT:??_7type_info@@6B@		; CDialog `RTTI Type Descriptor'
	DD	00H
	DB	'.?AVCDialog@@', 00H
data$r	ENDS
;	COMDAT ??_R1A@?0A@EA@CDialog@@8
rdata$r	SEGMENT
??_R1A@?0A@EA@CDialog@@8 DD FLAT:??_R0?AVCDialog@@@8	; CDialog::`RTTI Base Class Descriptor at (0,-1,0,64)'
	DD	03H
	DD	00H
	DD	0ffffffffH
	DD	00H
	DD	040H
	DD	FLAT:??_R3CDialog@@8
rdata$r	ENDS
;	COMDAT ??_R2CObject@@8
rdata$r	SEGMENT
??_R2CObject@@8 DD FLAT:??_R1A@?0A@EA@CObject@@8	; CObject::`RTTI Base Class Array'
rdata$r	ENDS
;	COMDAT ??_R3CObject@@8
rdata$r	SEGMENT
??_R3CObject@@8 DD 00H					; CObject::`RTTI Class Hierarchy Descriptor'
	DD	00H
	DD	01H
	DD	FLAT:??_R2CObject@@8
rdata$r	ENDS
;	COMDAT ??_R0?AVCObject@@@8
data$r	SEGMENT
??_R0?AVCObject@@@8 DD FLAT:??_7type_info@@6B@		; CObject `RTTI Type Descriptor'
	DD	00H
	DB	'.?AVCObject@@', 00H
data$r	ENDS
;	COMDAT ??_R1A@?0A@EA@CObject@@8
rdata$r	SEGMENT
??_R1A@?0A@EA@CObject@@8 DD FLAT:??_R0?AVCObject@@@8	; CObject::`RTTI Base Class Descriptor at (0,-1,0,64)'
	DD	00H
	DD	00H
	DD	0ffffffffH
	DD	00H
	DD	040H
	DD	FLAT:??_R3CObject@@8
rdata$r	ENDS
;	COMDAT xdata$x
xdata$x	SEGMENT
__unwindtable$??0CGameHelp@@QAE@PAVCWnd@@@Z DD 0ffffffffH
	DD	FLAT:__unwindfunclet$??0CGameHelp@@QAE@PAVCWnd@@@Z$0
__ehfuncinfo$??0CGameHelp@@QAE@PAVCWnd@@@Z DD 019930522H
	DD	01H
	DD	FLAT:__unwindtable$??0CGameHelp@@QAE@PAVCWnd@@@Z
	DD	2 DUP(00H)
	DD	2 DUP(00H)
	DD	00H
	DD	01H
xdata$x	ENDS
; Function compile flags: /Ogtp
; File d:\study\数据结构与算法综合实验\连连看游戏\llkpro17.6.18\lianliankan\gamehelp.cpp
;	COMDAT ??_GCGameHelp@@UAEPAXI@Z
_TEXT	SEGMENT
___flags$ = 8						; size = 4
??_GCGameHelp@@UAEPAXI@Z PROC				; CGameHelp::`scalar deleting destructor', COMDAT
; _this$ = ecx
  00000	55		 push	 ebp
  00001	8b ec		 mov	 ebp, esp
  00003	56		 push	 esi
  00004	8b f1		 mov	 esi, ecx
  00006	8d 8e c0 00 00
	00		 lea	 ecx, DWORD PTR [esi+192]

; 23   : {

  0000c	c7 06 00 00 00
	00		 mov	 DWORD PTR [esi], OFFSET ??_7CGameHelp@@6B@
  00012	e8 00 00 00 00	 call	 ??1CDialogImpl@@MAE@XZ	; CDialogImpl::~CDialogImpl
  00017	8d 8e b4 00 00
	00		 lea	 ecx, DWORD PTR [esi+180]
  0001d	e8 00 00 00 00	 call	 ??1CBrush@@UAE@XZ	; CBrush::~CBrush
  00022	8b ce		 mov	 ecx, esi
  00024	e8 00 00 00 00	 call	 ??1CDialog@@UAE@XZ	; CDialog::~CDialog
  00029	8b 45 08	 mov	 eax, DWORD PTR ___flags$[ebp]
  0002c	a8 01		 test	 al, 1
  0002e	74 1f		 je	 SHORT $LN13@scalar
  00030	a8 04		 test	 al, 4
  00032	75 0d		 jne	 SHORT $LN3@scalar
  00034	56		 push	 esi
  00035	e8 00 00 00 00	 call	 ??3CObject@@SGXPAX@Z	; CObject::operator delete
  0003a	8b c6		 mov	 eax, esi
  0003c	5e		 pop	 esi
  0003d	5d		 pop	 ebp
  0003e	c2 04 00	 ret	 4
$LN3@scalar:
  00041	68 d0 00 00 00	 push	 208			; 000000d0H
  00046	56		 push	 esi
  00047	e8 00 00 00 00	 call	 ?__global_delete@@YAXPAXI@Z ; __global_delete
  0004c	83 c4 08	 add	 esp, 8
$LN13@scalar:
  0004f	8b c6		 mov	 eax, esi
  00051	5e		 pop	 esi
  00052	5d		 pop	 ebp
  00053	c2 04 00	 ret	 4
??_GCGameHelp@@UAEPAXI@Z ENDP				; CGameHelp::`scalar deleting destructor'
_TEXT	ENDS
; Function compile flags: /Ogtp
; File d:\study\数据结构与算法综合实验\连连看游戏\llkpro17.6.18\lianliankan\gamehelp.cpp
;	COMDAT ?GetInterfaceMap@CGameHelp@@MBEPBUAFX_INTERFACEMAP@@XZ
_TEXT	SEGMENT
?GetInterfaceMap@CGameHelp@@MBEPBUAFX_INTERFACEMAP@@XZ PROC ; CGameHelp::GetInterfaceMap, COMDAT
; _this$ = ecx

; 56   : BEGIN_INTERFACE_MAP(CGameHelp, CDialogEx)

  00000	b8 00 00 00 00	 mov	 eax, OFFSET ?interfaceMap@CGameHelp@@1UAFX_INTERFACEMAP@@B ; CGameHelp::interfaceMap
  00005	c3		 ret	 0
?GetInterfaceMap@CGameHelp@@MBEPBUAFX_INTERFACEMAP@@XZ ENDP ; CGameHelp::GetInterfaceMap
_TEXT	ENDS
; Function compile flags: /Ogtp
; File d:\study\数据结构与算法综合实验\连连看游戏\llkpro17.6.18\lianliankan\gamehelp.cpp
;	COMDAT ?GetThisInterfaceMap@CGameHelp@@KGPBUAFX_INTERFACEMAP@@XZ
_TEXT	SEGMENT
?GetThisInterfaceMap@CGameHelp@@KGPBUAFX_INTERFACEMAP@@XZ PROC ; CGameHelp::GetThisInterfaceMap, COMDAT

; 56   : BEGIN_INTERFACE_MAP(CGameHelp, CDialogEx)

  00000	b8 00 00 00 00	 mov	 eax, OFFSET ?interfaceMap@CGameHelp@@1UAFX_INTERFACEMAP@@B ; CGameHelp::interfaceMap
  00005	c3		 ret	 0
?GetThisInterfaceMap@CGameHelp@@KGPBUAFX_INTERFACEMAP@@XZ ENDP ; CGameHelp::GetThisInterfaceMap
_TEXT	ENDS
; Function compile flags: /Ogtp
; File d:\study\数据结构与算法综合实验\连连看游戏\llkpro17.6.18\lianliankan\gamehelp.cpp
;	COMDAT ?GetDispatchMap@CGameHelp@@MBEPBUAFX_DISPMAP@@XZ
_TEXT	SEGMENT
?GetDispatchMap@CGameHelp@@MBEPBUAFX_DISPMAP@@XZ PROC	; CGameHelp::GetDispatchMap, COMDAT
; _this$ = ecx

; 45   : BEGIN_DISPATCH_MAP(CGameHelp, CDialogEx)

  00000	b8 00 00 00 00	 mov	 eax, OFFSET ?dispatchMap@CGameHelp@@1UAFX_DISPMAP@@B ; CGameHelp::dispatchMap
  00005	c3		 ret	 0
?GetDispatchMap@CGameHelp@@MBEPBUAFX_DISPMAP@@XZ ENDP	; CGameHelp::GetDispatchMap
_TEXT	ENDS
; Function compile flags: /Ogtp
; File d:\study\数据结构与算法综合实验\连连看游戏\llkpro17.6.18\lianliankan\gamehelp.cpp
;	COMDAT ?GetThisDispatchMap@CGameHelp@@KGPBUAFX_DISPMAP@@XZ
_TEXT	SEGMENT
?GetThisDispatchMap@CGameHelp@@KGPBUAFX_DISPMAP@@XZ PROC ; CGameHelp::GetThisDispatchMap, COMDAT

; 45   : BEGIN_DISPATCH_MAP(CGameHelp, CDialogEx)

  00000	b8 00 00 00 00	 mov	 eax, OFFSET ?dispatchMap@CGameHelp@@1UAFX_DISPMAP@@B ; CGameHelp::dispatchMap
  00005	c3		 ret	 0
?GetThisDispatchMap@CGameHelp@@KGPBUAFX_DISPMAP@@XZ ENDP ; CGameHelp::GetThisDispatchMap
_TEXT	ENDS
; Function compile flags: /Ogtp
; File d:\study\数据结构与算法综合实验\连连看游戏\llkpro17.6.18\lianliankan\gamehelp.cpp
;	COMDAT ?GetMessageMap@CGameHelp@@MBEPBUAFX_MSGMAP@@XZ
_TEXT	SEGMENT
?GetMessageMap@CGameHelp@@MBEPBUAFX_MSGMAP@@XZ PROC	; CGameHelp::GetMessageMap, COMDAT
; _this$ = ecx

; 42   : BEGIN_MESSAGE_MAP(CGameHelp, CDialogEx)

  00000	b8 00 00 00 00	 mov	 eax, OFFSET ?messageMap@?1??GetThisMessageMap@CGameHelp@@KGPBUAFX_MSGMAP@@XZ@4U3@B
  00005	c3		 ret	 0
?GetMessageMap@CGameHelp@@MBEPBUAFX_MSGMAP@@XZ ENDP	; CGameHelp::GetMessageMap
_TEXT	ENDS
; Function compile flags: /Ogtp
; File d:\study\数据结构与算法综合实验\连连看游戏\llkpro17.6.18\lianliankan\gamehelp.cpp
;	COMDAT ?GetThisMessageMap@CGameHelp@@KGPBUAFX_MSGMAP@@XZ
_TEXT	SEGMENT
?GetThisMessageMap@CGameHelp@@KGPBUAFX_MSGMAP@@XZ PROC	; CGameHelp::GetThisMessageMap, COMDAT

; 43   : END_MESSAGE_MAP()

  00000	b8 00 00 00 00	 mov	 eax, OFFSET ?messageMap@?1??GetThisMessageMap@CGameHelp@@KGPBUAFX_MSGMAP@@XZ@4U3@B
  00005	c3		 ret	 0
?GetThisMessageMap@CGameHelp@@KGPBUAFX_MSGMAP@@XZ ENDP	; CGameHelp::GetThisMessageMap
_TEXT	ENDS
; Function compile flags: /Ogtp
; File d:\study\数据结构与算法综合实验\连连看游戏\llkpro17.6.18\lianliankan\gamehelp.cpp
;	COMDAT ?DoDataExchange@CGameHelp@@MAEXPAVCDataExchange@@@Z
_TEXT	SEGMENT
_pDX$ = 8						; size = 4
?DoDataExchange@CGameHelp@@MAEXPAVCDataExchange@@@Z PROC ; CGameHelp::DoDataExchange, COMDAT
; _this$ = ecx

; 37   : {

  00000	55		 push	 ebp
  00001	8b ec		 mov	 ebp, esp

; 39   : }

  00003	5d		 pop	 ebp

; 38   : 	CDialogEx::DoDataExchange(pDX);

  00004	e9 00 00 00 00	 jmp	 ?DoDataExchange@CWnd@@MAEXPAVCDataExchange@@@Z ; CWnd::DoDataExchange
?DoDataExchange@CGameHelp@@MAEXPAVCDataExchange@@@Z ENDP ; CGameHelp::DoDataExchange
_TEXT	ENDS
; Function compile flags: /Ogtp
; File d:\study\数据结构与算法综合实验\连连看游戏\llkpro17.6.18\lianliankan\gamehelp.cpp
;	COMDAT ?OnFinalRelease@CGameHelp@@UAEXXZ
_TEXT	SEGMENT
?OnFinalRelease@CGameHelp@@UAEXXZ PROC			; CGameHelp::OnFinalRelease, COMDAT
; _this$ = ecx

; 28   : 	// 释放了对自动化对象的最后一个引用后，将调用
; 29   : 	// OnFinalRelease。  基类将自动
; 30   : 	// 删除该对象。  在调用该基类之前，请添加您的
; 31   : 	// 对象所需的附加清理代码。
; 32   : 
; 33   : 	CDialogEx::OnFinalRelease();

  00000	e9 00 00 00 00	 jmp	 ?OnFinalRelease@CWnd@@UAEXXZ ; CWnd::OnFinalRelease
?OnFinalRelease@CGameHelp@@UAEXXZ ENDP			; CGameHelp::OnFinalRelease
_TEXT	ENDS
; Function compile flags: /Ogtp
; File d:\study\数据结构与算法综合实验\连连看游戏\llkpro17.6.18\lianliankan\gamehelp.cpp
;	COMDAT ??1CGameHelp@@UAE@XZ
_TEXT	SEGMENT
??1CGameHelp@@UAE@XZ PROC				; CGameHelp::~CGameHelp, COMDAT
; _this$ = ecx

; 23   : {

  00000	56		 push	 esi
  00001	8b f1		 mov	 esi, ecx
  00003	8d 8e c0 00 00
	00		 lea	 ecx, DWORD PTR [esi+192]
  00009	c7 06 00 00 00
	00		 mov	 DWORD PTR [esi], OFFSET ??_7CGameHelp@@6B@
  0000f	e8 00 00 00 00	 call	 ??1CDialogImpl@@MAE@XZ	; CDialogImpl::~CDialogImpl
  00014	8d 8e b4 00 00
	00		 lea	 ecx, DWORD PTR [esi+180]
  0001a	e8 00 00 00 00	 call	 ??1CBrush@@UAE@XZ	; CBrush::~CBrush
  0001f	8b ce		 mov	 ecx, esi
  00021	5e		 pop	 esi
  00022	e9 00 00 00 00	 jmp	 ??1CDialog@@UAE@XZ	; CDialog::~CDialog
??1CGameHelp@@UAE@XZ ENDP				; CGameHelp::~CGameHelp
_TEXT	ENDS
; Function compile flags: /Ogtp
; File d:\study\数据结构与算法综合实验\连连看游戏\llkpro17.6.18\lianliankan\gamehelp.cpp
;	COMDAT ??0CGameHelp@@QAE@PAVCWnd@@@Z
_TEXT	SEGMENT
_this$ = -16						; size = 4
__$EHRec$ = -12						; size = 12
_pParent$ = 8						; size = 4
??0CGameHelp@@QAE@PAVCWnd@@@Z PROC			; CGameHelp::CGameHelp, COMDAT
; _this$ = ecx

; 16   : {

  00000	55		 push	 ebp
  00001	8b ec		 mov	 ebp, esp
  00003	6a ff		 push	 -1
  00005	68 00 00 00 00	 push	 __ehhandler$??0CGameHelp@@QAE@PAVCWnd@@@Z
  0000a	64 a1 00 00 00
	00		 mov	 eax, DWORD PTR fs:0
  00010	50		 push	 eax
  00011	51		 push	 ecx
  00012	56		 push	 esi
  00013	a1 00 00 00 00	 mov	 eax, DWORD PTR ___security_cookie
  00018	33 c5		 xor	 eax, ebp
  0001a	50		 push	 eax
  0001b	8d 45 f4	 lea	 eax, DWORD PTR __$EHRec$[ebp]
  0001e	64 a3 00 00 00
	00		 mov	 DWORD PTR fs:0, eax
  00024	8b f1		 mov	 esi, ecx
  00026	89 75 f0	 mov	 DWORD PTR _this$[ebp], esi

; 15   : 	: CDialogEx(IDD_Help_DIALOG, pParent)

  00029	ff 75 08	 push	 DWORD PTR _pParent$[ebp]
  0002c	68 99 00 00 00	 push	 153			; 00000099H
  00031	e8 00 00 00 00	 call	 ??0CDialogEx@@QAE@IPAVCWnd@@@Z ; CDialogEx::CDialogEx

; 17   : 
; 18   : 	EnableAutomation();

  00036	8b ce		 mov	 ecx, esi
  00038	c7 45 fc 00 00
	00 00		 mov	 DWORD PTR __$EHRec$[ebp+8], 0
  0003f	c7 06 00 00 00
	00		 mov	 DWORD PTR [esi], OFFSET ??_7CGameHelp@@6B@
  00045	e8 00 00 00 00	 call	 ?EnableAutomation@CCmdTarget@@QAEXXZ ; CCmdTarget::EnableAutomation

; 19   : 
; 20   : }

  0004a	8b c6		 mov	 eax, esi
  0004c	8b 4d f4	 mov	 ecx, DWORD PTR __$EHRec$[ebp]
  0004f	64 89 0d 00 00
	00 00		 mov	 DWORD PTR fs:0, ecx
  00056	59		 pop	 ecx
  00057	5e		 pop	 esi
  00058	8b e5		 mov	 esp, ebp
  0005a	5d		 pop	 ebp
  0005b	c2 04 00	 ret	 4
_TEXT	ENDS
;	COMDAT text$x
text$x	SEGMENT
__unwindfunclet$??0CGameHelp@@QAE@PAVCWnd@@@Z$0:
  00000	8b 4d f0	 mov	 ecx, DWORD PTR _this$[ebp]
  00003	e9 00 00 00 00	 jmp	 ??1CDialogEx@@UAE@XZ
__ehhandler$??0CGameHelp@@QAE@PAVCWnd@@@Z:
  00008	8b 54 24 08	 mov	 edx, DWORD PTR [esp+8]
  0000c	8d 42 0c	 lea	 eax, DWORD PTR [edx+12]
  0000f	8b 4a f4	 mov	 ecx, DWORD PTR [edx-12]
  00012	33 c8		 xor	 ecx, eax
  00014	e8 00 00 00 00	 call	 @__security_check_cookie@4
  00019	b8 00 00 00 00	 mov	 eax, OFFSET __ehfuncinfo$??0CGameHelp@@QAE@PAVCWnd@@@Z
  0001e	e9 00 00 00 00	 jmp	 ___CxxFrameHandler3
text$x	ENDS
??0CGameHelp@@QAE@PAVCWnd@@@Z ENDP			; CGameHelp::CGameHelp
; Function compile flags: /Ogtp
; File d:\study\数据结构与算法综合实验\连连看游戏\llkpro17.6.18\lianliankan\gamehelp.cpp
;	COMDAT ?GetRuntimeClass@CGameHelp@@UBEPAUCRuntimeClass@@XZ
_TEXT	SEGMENT
?GetRuntimeClass@CGameHelp@@UBEPAUCRuntimeClass@@XZ PROC ; CGameHelp::GetRuntimeClass, COMDAT
; _this$ = ecx

; 12   : IMPLEMENT_DYNAMIC(CGameHelp, CDialogEx)

  00000	b8 00 00 00 00	 mov	 eax, OFFSET ?classCGameHelp@CGameHelp@@2UCRuntimeClass@@B ; CGameHelp::classCGameHelp
  00005	c3		 ret	 0
?GetRuntimeClass@CGameHelp@@UBEPAUCRuntimeClass@@XZ ENDP ; CGameHelp::GetRuntimeClass
_TEXT	ENDS
; Function compile flags: /Ogtp
; File d:\study\数据结构与算法综合实验\连连看游戏\llkpro17.6.18\lianliankan\gamehelp.cpp
;	COMDAT ?GetThisClass@CGameHelp@@SGPAUCRuntimeClass@@XZ
_TEXT	SEGMENT
?GetThisClass@CGameHelp@@SGPAUCRuntimeClass@@XZ PROC	; CGameHelp::GetThisClass, COMDAT

; 12   : IMPLEMENT_DYNAMIC(CGameHelp, CDialogEx)

  00000	b8 00 00 00 00	 mov	 eax, OFFSET ?classCGameHelp@CGameHelp@@2UCRuntimeClass@@B ; CGameHelp::classCGameHelp
  00005	c3		 ret	 0
?GetThisClass@CGameHelp@@SGPAUCRuntimeClass@@XZ ENDP	; CGameHelp::GetThisClass
_TEXT	ENDS
; Function compile flags: /Ogtp
; File d:\study\数据结构与算法综合实验\连连看游戏\llkpro17.6.18\lianliankan\gamehelp.cpp
;	COMDAT ?_GetBaseClass@CGameHelp@@KGPAUCRuntimeClass@@XZ
_TEXT	SEGMENT
?_GetBaseClass@CGameHelp@@KGPAUCRuntimeClass@@XZ PROC	; CGameHelp::_GetBaseClass, COMDAT

; 12   : IMPLEMENT_DYNAMIC(CGameHelp, CDialogEx)

  00000	e9 00 00 00 00	 jmp	 ?GetThisClass@CDialogEx@@SGPAUCRuntimeClass@@XZ ; CDialogEx::GetThisClass
?_GetBaseClass@CGameHelp@@KGPAUCRuntimeClass@@XZ ENDP	; CGameHelp::_GetBaseClass
_TEXT	ENDS
; Function compile flags: /Ogtp
;	COMDAT ??1CDialogEx@@UAE@XZ
_TEXT	SEGMENT
??1CDialogEx@@UAE@XZ PROC				; CDialogEx::~CDialogEx, COMDAT
; _this$ = ecx
  00000	56		 push	 esi
  00001	8b f1		 mov	 esi, ecx
  00003	8d 8e c0 00 00
	00		 lea	 ecx, DWORD PTR [esi+192]
  00009	e8 00 00 00 00	 call	 ??1CDialogImpl@@MAE@XZ	; CDialogImpl::~CDialogImpl
  0000e	8d 8e b4 00 00
	00		 lea	 ecx, DWORD PTR [esi+180]
  00014	e8 00 00 00 00	 call	 ??1CBrush@@UAE@XZ	; CBrush::~CBrush
  00019	8b ce		 mov	 ecx, esi
  0001b	5e		 pop	 esi
  0001c	e9 00 00 00 00	 jmp	 ??1CDialog@@UAE@XZ	; CDialog::~CDialog
??1CDialogEx@@UAE@XZ ENDP				; CDialogEx::~CDialogEx
_TEXT	ENDS
; Function compile flags: /Ogtp
; File d:\study\数据结构与算法综合实验\连连看游戏\llkpro17.6.18\lianliankan\gamehelp.cpp
;	COMDAT ?__empty_global_delete@@YAXPAXI@Z
_TEXT	SEGMENT
___formal$ = 8						; size = 4
___formal$ = 12						; size = 4
?__empty_global_delete@@YAXPAXI@Z PROC			; __empty_global_delete, COMDAT

  00000	c3		 ret	 0
?__empty_global_delete@@YAXPAXI@Z ENDP			; __empty_global_delete
_TEXT	ENDS
; Function compile flags: /Ogtp
; File d:\study\数据结构与算法综合实验\连连看游戏\llkpro17.6.18\lianliankan\gamehelp.cpp
;	COMDAT ?__empty_global_delete@@YAXPAX@Z
_TEXT	SEGMENT
___formal$ = 8						; size = 4
?__empty_global_delete@@YAXPAX@Z PROC			; __empty_global_delete, COMDAT

  00000	c3		 ret	 0
?__empty_global_delete@@YAXPAX@Z ENDP			; __empty_global_delete
_TEXT	ENDS
END
