; Listing generated by Microsoft (R) Optimizing Compiler Version 19.00.24215.1 

	TITLE	D:\Study\数据结构与算法综合实验\连连看游戏\LLKPro17.6.18\Lianliankan\GameException.cpp
	.686P
	.XMM
	include listing.inc
	.model	flat

INCLUDELIB MSVCRTD
INCLUDELIB OLDNAMES

PUBLIC	?__LINE__Var@?0??RegisterCategory@CTrace@ATL@@SAXPB_WI@Z@4JA ; `ATL::CTrace::RegisterCategory'::`1'::__LINE__Var
PUBLIC	??_C@_1EO@EBPPKGOM@?$AAf?$AAa?$AAl?$AAs?$AAe?$AA?5?$AA?$CG?$AA?$CG?$AA?5?$AA?$CC?$AAT?$AAo?$AAo?$AA?5?$AAm?$AAa?$AAn?$AAy?$AA?5?$AAc?$AAa?$AAt?$AAe?$AAg?$AAo?$AAr?$AAi?$AAe?$AAs?$AA?5?$AAd?$AAe@ ; `string'
PUBLIC	??_C@_1IO@PCOKKAMF@?$AAd?$AA?3?$AA?2?$AAd?$AAe?$AAv?$AAe?$AAl?$AAo?$AAp?$AAe?$AAr?$AA?2?$AAm?$AAi?$AAc?$AAr?$AAo?$AAs?$AAo?$AAf?$AAt?$AA?5?$AAv?$AAi?$AAs?$AAu?$AAa?$AAl?$AA?5?$AAs?$AAt@ ; `string'
PUBLIC	??_C@_1CE@IMMADNAP@?$AAa?$AAt?$AAl?$AAT?$AAr?$AAa?$AAc?$AAe?$AAE?$AAx?$AAc?$AAe?$AAp?$AAt?$AAi?$AAo?$AAn?$AA?$AA@ ; `string'
PUBLIC	?__LINE__Var@?0???0?$CTraceCategoryEx@$0CAAA@$0A@@ATL@@QAE@PB_W@Z@4JA ; `ATL::CTraceCategoryEx<8192,0>::CTraceCategoryEx<8192,0>'::`1'::__LINE__Var
PUBLIC	?m_nLastCategory@CTrace@ATL@@1IA		; ATL::CTrace::m_nLastCategory
PUBLIC	?m_nMap@CTrace@ATL@@1PAUCategoryMap@12@A	; ATL::CTrace::m_nMap
PUBLIC	??_C@_17CNPHIMPH@?$AA?$CF?$AAl?$AAs?$AA?$AA@	; `string'
;	COMDAT ?m_nLastCategory@CTrace@ATL@@1IA
_BSS	SEGMENT
?m_nLastCategory@CTrace@ATL@@1IA DD 01H DUP (?)		; ATL::CTrace::m_nLastCategory
_BSS	ENDS
;	COMDAT ?m_nMap@CTrace@ATL@@1PAUCategoryMap@12@A
_BSS	SEGMENT
?m_nMap@CTrace@ATL@@1PAUCategoryMap@12@A DB 02080H DUP (?) ; ATL::CTrace::m_nMap
_BSS	ENDS
;	COMDAT ??_C@_17CNPHIMPH@?$AA?$CF?$AAl?$AAs?$AA?$AA@
CONST	SEGMENT
??_C@_17CNPHIMPH@?$AA?$CF?$AAl?$AAs?$AA?$AA@ DB '%', 00H, 'l', 00H, 's', 00H
	DB	00H, 00H					; `string'
CONST	ENDS
;	COMDAT ?__LINE__Var@?0???0?$CTraceCategoryEx@$0CAAA@$0A@@ATL@@QAE@PB_W@Z@4JA
_DATA	SEGMENT
?__LINE__Var@?0???0?$CTraceCategoryEx@$0CAAA@$0A@@ATL@@QAE@PB_W@Z@4JA DD 01e0H ; `ATL::CTraceCategoryEx<8192,0>::CTraceCategoryEx<8192,0>'::`1'::__LINE__Var
_DATA	ENDS
;	COMDAT ??_C@_1CE@IMMADNAP@?$AAa?$AAt?$AAl?$AAT?$AAr?$AAa?$AAc?$AAe?$AAE?$AAx?$AAc?$AAe?$AAp?$AAt?$AAi?$AAo?$AAn?$AA?$AA@
CONST	SEGMENT
??_C@_1CE@IMMADNAP@?$AAa?$AAt?$AAl?$AAT?$AAr?$AAa?$AAc?$AAe?$AAE?$AAx?$AAc?$AAe?$AAp?$AAt?$AAi?$AAo?$AAn?$AA?$AA@ DB 'a'
	DB	00H, 't', 00H, 'l', 00H, 'T', 00H, 'r', 00H, 'a', 00H, 'c', 00H
	DB	'e', 00H, 'E', 00H, 'x', 00H, 'c', 00H, 'e', 00H, 'p', 00H, 't'
	DB	00H, 'i', 00H, 'o', 00H, 'n', 00H, 00H, 00H	; `string'
CONST	ENDS
;	COMDAT ??_C@_1IO@PCOKKAMF@?$AAd?$AA?3?$AA?2?$AAd?$AAe?$AAv?$AAe?$AAl?$AAo?$AAp?$AAe?$AAr?$AA?2?$AAm?$AAi?$AAc?$AAr?$AAo?$AAs?$AAo?$AAf?$AAt?$AA?5?$AAv?$AAi?$AAs?$AAu?$AAa?$AAl?$AA?5?$AAs?$AAt@
CONST	SEGMENT
??_C@_1IO@PCOKKAMF@?$AAd?$AA?3?$AA?2?$AAd?$AAe?$AAv?$AAe?$AAl?$AAo?$AAp?$AAe?$AAr?$AA?2?$AAm?$AAi?$AAc?$AAr?$AAo?$AAs?$AAo?$AAf?$AAt?$AA?5?$AAv?$AAi?$AAs?$AAu?$AAa?$AAl?$AA?5?$AAs?$AAt@ DB 'd'
	DB	00H, ':', 00H, '\', 00H, 'd', 00H, 'e', 00H, 'v', 00H, 'e', 00H
	DB	'l', 00H, 'o', 00H, 'p', 00H, 'e', 00H, 'r', 00H, '\', 00H, 'm'
	DB	00H, 'i', 00H, 'c', 00H, 'r', 00H, 'o', 00H, 's', 00H, 'o', 00H
	DB	'f', 00H, 't', 00H, ' ', 00H, 'v', 00H, 'i', 00H, 's', 00H, 'u'
	DB	00H, 'a', 00H, 'l', 00H, ' ', 00H, 's', 00H, 't', 00H, 'u', 00H
	DB	'd', 00H, 'i', 00H, 'o', 00H, ' ', 00H, '1', 00H, '4', 00H, '.'
	DB	00H, '0', 00H, '\', 00H, 'v', 00H, 'c', 00H, '\', 00H, 'a', 00H
	DB	't', 00H, 'l', 00H, 'm', 00H, 'f', 00H, 'c', 00H, '\', 00H, 'i'
	DB	00H, 'n', 00H, 'c', 00H, 'l', 00H, 'u', 00H, 'd', 00H, 'e', 00H
	DB	'\', 00H, 'a', 00H, 't', 00H, 'l', 00H, 't', 00H, 'r', 00H, 'a'
	DB	00H, 'c', 00H, 'e', 00H, '.', 00H, 'h', 00H, 00H, 00H ; `string'
CONST	ENDS
;	COMDAT ??_C@_1EO@EBPPKGOM@?$AAf?$AAa?$AAl?$AAs?$AAe?$AA?5?$AA?$CG?$AA?$CG?$AA?5?$AA?$CC?$AAT?$AAo?$AAo?$AA?5?$AAm?$AAa?$AAn?$AAy?$AA?5?$AAc?$AAa?$AAt?$AAe?$AAg?$AAo?$AAr?$AAi?$AAe?$AAs?$AA?5?$AAd?$AAe@
CONST	SEGMENT
??_C@_1EO@EBPPKGOM@?$AAf?$AAa?$AAl?$AAs?$AAe?$AA?5?$AA?$CG?$AA?$CG?$AA?5?$AA?$CC?$AAT?$AAo?$AAo?$AA?5?$AAm?$AAa?$AAn?$AAy?$AA?5?$AAc?$AAa?$AAt?$AAe?$AAg?$AAo?$AAr?$AAi?$AAe?$AAs?$AA?5?$AAd?$AAe@ DB 'f'
	DB	00H, 'a', 00H, 'l', 00H, 's', 00H, 'e', 00H, ' ', 00H, '&', 00H
	DB	'&', 00H, ' ', 00H, '"', 00H, 'T', 00H, 'o', 00H, 'o', 00H, ' '
	DB	00H, 'm', 00H, 'a', 00H, 'n', 00H, 'y', 00H, ' ', 00H, 'c', 00H
	DB	'a', 00H, 't', 00H, 'e', 00H, 'g', 00H, 'o', 00H, 'r', 00H, 'i'
	DB	00H, 'e', 00H, 's', 00H, ' ', 00H, 'd', 00H, 'e', 00H, 'f', 00H
	DB	'i', 00H, 'n', 00H, 'e', 00H, 'd', 00H, '"', 00H, 00H, 00H ; `string'
CONST	ENDS
;	COMDAT ?__LINE__Var@?0??RegisterCategory@CTrace@ATL@@SAXPB_WI@Z@4JA
_DATA	SEGMENT
?__LINE__Var@?0??RegisterCategory@CTrace@ATL@@SAXPB_WI@Z@4JA DD 0149H ; `ATL::CTrace::RegisterCategory'::`1'::__LINE__Var
_DATA	ENDS
PUBLIC	?__empty_global_delete@@YAXPAX@Z		; __empty_global_delete
PUBLIC	?__empty_global_delete@@YAXPAXI@Z		; __empty_global_delete
PUBLIC	?RegisterCategory@CTrace@ATL@@SAXPB_WI@Z	; ATL::CTrace::RegisterCategory
PUBLIC	??0CGameException@@QAE@PA_W@Z			; CGameException::CGameException
PUBLIC	??1CGameException@@QAE@XZ			; CGameException::~CGameException
PUBLIC	?atlTraceException@ATL@@3V?$CTraceCategoryEx@$0CAAA@$0A@@1@A ; ATL::atlTraceException
PUBLIC	??_C@_1O@IGDMIDOM@?$AAE?$AAr?$AAr?$AAo?$AAr?$AA?$CB?$AA?$AA@ ; `string'
EXTRN	??3@YAXPAXI@Z:PROC				; operator delete
EXTRN	__imp__wcscpy_s:PROC
EXTRN	__imp__MessageBoxW@16:PROC
EXTRN	__imp___CrtDbgReportW:PROC
EXTRN	__imp_??B?$CSimpleStringT@_W$00@ATL@@QBEPB_WXZ:PROC
EXTRN	__imp_??0?$CStringT@_WV?$StrTraitMFC_DLL@_WV?$ChTraitsCRT@_W@ATL@@@@@ATL@@QAE@XZ:PROC
EXTRN	__imp_??1?$CStringT@_WV?$StrTraitMFC_DLL@_WV?$ChTraitsCRT@_W@ATL@@@@@ATL@@QAE@XZ:PROC
EXTRN	__imp_?Format@?$CStringT@_WV?$StrTraitMFC_DLL@_WV?$ChTraitsCRT@_W@ATL@@@@@ATL@@QAAXPB_WZZ:PROC
EXTRN	@__security_check_cookie@4:PROC
EXTRN	___CxxFrameHandler3:PROC
EXTRN	___security_cookie:DWORD
;	COMDAT ?atlTraceException@ATL@@3V?$CTraceCategoryEx@$0CAAA@$0A@@1@A
_BSS	SEGMENT
?atlTraceException@ATL@@3V?$CTraceCategoryEx@$0CAAA@$0A@@1@A DD 01H DUP (?) ; ATL::atlTraceException
_BSS	ENDS
;	COMDAT CRT$XCU
CRT$XCU	SEGMENT
?atlTraceException$initializer$@ATL@@3P6AXXZA DD FLAT:??__EatlTraceException@ATL@@YAXXZ ; ATL::atlTraceException$initializer$
CRT$XCU	ENDS
;	COMDAT ??_C@_1O@IGDMIDOM@?$AAE?$AAr?$AAr?$AAo?$AAr?$AA?$CB?$AA?$AA@
CONST	SEGMENT
??_C@_1O@IGDMIDOM@?$AAE?$AAr?$AAr?$AAo?$AAr?$AA?$CB?$AA?$AA@ DB 'E', 00H, 'r'
	DB	00H, 'r', 00H, 'o', 00H, 'r', 00H, '!', 00H, 00H, 00H ; `string'
CONST	ENDS
;	COMDAT xdata$x
xdata$x	SEGMENT
__unwindtable$??0CGameException@@QAE@PA_W@Z DD 0ffffffffH
	DD	FLAT:__unwindfunclet$??0CGameException@@QAE@PA_W@Z$0
__ehfuncinfo$??0CGameException@@QAE@PA_W@Z DD 019930522H
	DD	01H
	DD	FLAT:__unwindtable$??0CGameException@@QAE@PA_W@Z
	DD	2 DUP(00H)
	DD	2 DUP(00H)
	DD	00H
	DD	01H
xdata$x	ENDS
; Function compile flags: /Ogtp
; File d:\study\数据结构与算法综合实验\连连看游戏\llkpro17.6.18\lianliankan\gameexception.cpp
;	COMDAT ??1CGameException@@QAE@XZ
_TEXT	SEGMENT
??1CGameException@@QAE@XZ PROC				; CGameException::~CGameException, COMDAT
; _this$ = ecx

; 18   : {

  00000	56		 push	 esi
  00001	8b f1		 mov	 esi, ecx

; 19   : 	delete info;   //释放指针

  00003	ff 15 00 00 00
	00		 call	 DWORD PTR __imp_??B?$CSimpleStringT@_W$00@ATL@@QBEPB_WXZ
  00009	6a 02		 push	 2
  0000b	50		 push	 eax
  0000c	e8 00 00 00 00	 call	 ??3@YAXPAXI@Z		; operator delete
  00011	83 c4 08	 add	 esp, 8

; 20   : }

  00014	8b ce		 mov	 ecx, esi
  00016	5e		 pop	 esi
  00017	ff 25 00 00 00
	00		 jmp	 DWORD PTR __imp_??1?$CStringT@_WV?$StrTraitMFC_DLL@_WV?$ChTraitsCRT@_W@ATL@@@@@ATL@@QAE@XZ
??1CGameException@@QAE@XZ ENDP				; CGameException::~CGameException
_TEXT	ENDS
; Function compile flags: /Ogtp
; File d:\study\数据结构与算法综合实验\连连看游戏\llkpro17.6.18\lianliankan\gameexception.cpp
;	COMDAT ??0CGameException@@QAE@PA_W@Z
_TEXT	SEGMENT
_this$ = -16						; size = 4
__$EHRec$ = -12						; size = 12
_excp$ = 8						; size = 4
??0CGameException@@QAE@PA_W@Z PROC			; CGameException::CGameException, COMDAT
; _this$ = ecx

; 11   : {

  00000	55		 push	 ebp
  00001	8b ec		 mov	 ebp, esp
  00003	6a ff		 push	 -1
  00005	68 00 00 00 00	 push	 __ehhandler$??0CGameException@@QAE@PA_W@Z
  0000a	64 a1 00 00 00
	00		 mov	 eax, DWORD PTR fs:0
  00010	50		 push	 eax
  00011	51		 push	 ecx
  00012	56		 push	 esi
  00013	a1 00 00 00 00	 mov	 eax, DWORD PTR ___security_cookie
  00018	33 c5		 xor	 eax, ebp
  0001a	50		 push	 eax
  0001b	8d 45 f4	 lea	 eax, DWORD PTR __$EHRec$[ebp]
  0001e	64 a3 00 00 00
	00		 mov	 DWORD PTR fs:0, eax
  00024	8b f1		 mov	 esi, ecx
  00026	89 75 f0	 mov	 DWORD PTR _this$[ebp], esi
  00029	ff 15 00 00 00
	00		 call	 DWORD PTR __imp_??0?$CStringT@_WV?$StrTraitMFC_DLL@_WV?$ChTraitsCRT@_W@ATL@@@@@ATL@@QAE@XZ

; 12   : 	info.Format(excp);

  0002f	ff 75 08	 push	 DWORD PTR _excp$[ebp]
  00032	c7 45 fc 00 00
	00 00		 mov	 DWORD PTR __$EHRec$[ebp+8], 0
  00039	56		 push	 esi
  0003a	ff 15 00 00 00
	00		 call	 DWORD PTR __imp_?Format@?$CStringT@_WV?$StrTraitMFC_DLL@_WV?$ChTraitsCRT@_W@ATL@@@@@ATL@@QAAXPB_WZZ
  00040	83 c4 08	 add	 esp, 8

; 13   : 	MessageBox(NULL, info, _T("Error!"), MB_OK | MB_ICONERROR);   //输出异常信息

  00043	8b ce		 mov	 ecx, esi
  00045	6a 10		 push	 16			; 00000010H
  00047	68 00 00 00 00	 push	 OFFSET ??_C@_1O@IGDMIDOM@?$AAE?$AAr?$AAr?$AAo?$AAr?$AA?$CB?$AA?$AA@
  0004c	ff 15 00 00 00
	00		 call	 DWORD PTR __imp_??B?$CSimpleStringT@_W$00@ATL@@QBEPB_WXZ
  00052	50		 push	 eax
  00053	6a 00		 push	 0
  00055	ff 15 00 00 00
	00		 call	 DWORD PTR __imp__MessageBoxW@16

; 14   : }

  0005b	8b c6		 mov	 eax, esi
  0005d	8b 4d f4	 mov	 ecx, DWORD PTR __$EHRec$[ebp]
  00060	64 89 0d 00 00
	00 00		 mov	 DWORD PTR fs:0, ecx
  00067	59		 pop	 ecx
  00068	5e		 pop	 esi
  00069	8b e5		 mov	 esp, ebp
  0006b	5d		 pop	 ebp
  0006c	c2 04 00	 ret	 4
_TEXT	ENDS
;	COMDAT text$x
text$x	SEGMENT
__unwindfunclet$??0CGameException@@QAE@PA_W@Z$0:
  00000	8b 4d f0	 mov	 ecx, DWORD PTR _this$[ebp]
  00003	ff 25 00 00 00
	00		 jmp	 DWORD PTR __imp_??1?$CStringT@_WV?$StrTraitMFC_DLL@_WV?$ChTraitsCRT@_W@ATL@@@@@ATL@@QAE@XZ
__ehhandler$??0CGameException@@QAE@PA_W@Z:
  00009	8b 54 24 08	 mov	 edx, DWORD PTR [esp+8]
  0000d	8d 42 0c	 lea	 eax, DWORD PTR [edx+12]
  00010	8b 4a f4	 mov	 ecx, DWORD PTR [edx-12]
  00013	33 c8		 xor	 ecx, eax
  00015	e8 00 00 00 00	 call	 @__security_check_cookie@4
  0001a	b8 00 00 00 00	 mov	 eax, OFFSET __ehfuncinfo$??0CGameException@@QAE@PA_W@Z
  0001f	e9 00 00 00 00	 jmp	 ___CxxFrameHandler3
text$x	ENDS
??0CGameException@@QAE@PA_W@Z ENDP			; CGameException::CGameException
; Function compile flags: /Ogtp
; File d:\developer\microsoft visual studio 14.0\vc\atlmfc\include\atltrace.h
;	COMDAT ?RegisterCategory@CTrace@ATL@@SAXPB_WI@Z
_TEXT	SEGMENT
_pszCategory$ = 8					; size = 4
_nCategory$ = 12					; size = 4
?RegisterCategory@CTrace@ATL@@SAXPB_WI@Z PROC		; ATL::CTrace::RegisterCategory, COMDAT

; 329  : 	{

  00000	55		 push	 ebp
  00001	8b ec		 mov	 ebp, esp

; 330  : 		if (pszCategory == nullptr)

  00003	8b 55 08	 mov	 edx, DWORD PTR _pszCategory$[ebp]
  00006	85 d2		 test	 edx, edx
  00008	74 5b		 je	 SHORT $LN1@RegisterCa

; 331  : 		{
; 332  : 			return;
; 333  : 		}
; 334  : 
; 335  : 		if (m_nLastCategory >= MaxCategoryArray) 

  0000a	a1 00 00 00 00	 mov	 eax, DWORD PTR ?m_nLastCategory@CTrace@ATL@@1IA ; ATL::CTrace::m_nLastCategory
  0000f	83 f8 20	 cmp	 eax, 32			; 00000020H
  00012	72 29		 jb	 SHORT $LN3@RegisterCa

; 336  : 		{
; 337  : 			ATLASSERT(false && "Too many categories defined");

  00014	68 00 00 00 00	 push	 OFFSET ??_C@_1EO@EBPPKGOM@?$AAf?$AAa?$AAl?$AAs?$AAe?$AA?5?$AA?$CG?$AA?$CG?$AA?5?$AA?$CC?$AAT?$AAo?$AAo?$AA?5?$AAm?$AAa?$AAn?$AAy?$AA?5?$AAc?$AAa?$AAt?$AAe?$AAg?$AAo?$AAr?$AAi?$AAe?$AAs?$AA?5?$AAd?$AAe@
  00019	68 00 00 00 00	 push	 OFFSET ??_C@_17CNPHIMPH@?$AA?$CF?$AAl?$AAs?$AA?$AA@
  0001e	6a 00		 push	 0
  00020	68 51 01 00 00	 push	 337			; 00000151H
  00025	68 00 00 00 00	 push	 OFFSET ??_C@_1IO@PCOKKAMF@?$AAd?$AA?3?$AA?2?$AAd?$AAe?$AAv?$AAe?$AAl?$AAo?$AAp?$AAe?$AAr?$AA?2?$AAm?$AAi?$AAc?$AAr?$AAo?$AAs?$AAo?$AAf?$AAt?$AA?5?$AAv?$AAi?$AAs?$AAu?$AAa?$AAl?$AA?5?$AAs?$AAt@
  0002a	6a 02		 push	 2
  0002c	ff 15 00 00 00
	00		 call	 DWORD PTR __imp___CrtDbgReportW
  00032	83 c4 18	 add	 esp, 24			; 00000018H
  00035	83 f8 01	 cmp	 eax, 1
  00038	75 2b		 jne	 SHORT $LN1@RegisterCa
  0003a	cc		 int	 3

; 355  : 	}

  0003b	5d		 pop	 ebp
  0003c	c3		 ret	 0
$LN3@RegisterCa:

; 338  : 			return;
; 339  : 		}
; 340  : 
; 341  : 		m_nMap[m_nLastCategory].nCategory = nCategory;

  0003d	69 c8 04 01 00
	00		 imul	 ecx, eax, 260
  00043	8b 45 0c	 mov	 eax, DWORD PTR _nCategory$[ebp]

; 342  : #ifdef _UNICODE
; 343  : 		wcscpy_s(m_nMap[m_nLastCategory].categryName, MaxLengthOfCategoryName - 1, pszCategory);

  00046	52		 push	 edx
  00047	6a 7f		 push	 127			; 0000007fH
  00049	89 81 00 00 00
	00		 mov	 DWORD PTR ?m_nMap@CTrace@ATL@@1PAUCategoryMap@12@A[ecx], eax
  0004f	8d 81 04 00 00
	00		 lea	 eax, DWORD PTR ?m_nMap@CTrace@ATL@@1PAUCategoryMap@12@A[ecx+4]
  00055	50		 push	 eax
  00056	ff 15 00 00 00
	00		 call	 DWORD PTR __imp__wcscpy_s
  0005c	83 c4 0c	 add	 esp, 12			; 0000000cH

; 344  : #else
; 345  : 		wchar_t buffer[MaxLengthOfCategoryName] = { 0 };	
; 346  : #if _MSC_VER < 1900
; 347  : 		swprintf_s(buffer, MaxLengthOfCategoryName - 1, L"%S", pszCategory);
; 348  : #else
; 349  : 		swprintf_s(buffer, MaxLengthOfCategoryName - 1, L"%hs", pszCategory);
; 350  : #endif
; 351  : 		wcscpy_s(m_nMap[m_nLastCategory].categryName, MaxLengthOfCategoryName - 1, buffer);
; 352  : #endif
; 353  : 	
; 354  : 		m_nLastCategory++;

  0005f	ff 05 00 00 00
	00		 inc	 DWORD PTR ?m_nLastCategory@CTrace@ATL@@1IA ; ATL::CTrace::m_nLastCategory
$LN1@RegisterCa:

; 355  : 	}

  00065	5d		 pop	 ebp
  00066	c3		 ret	 0
?RegisterCategory@CTrace@ATL@@SAXPB_WI@Z ENDP		; ATL::CTrace::RegisterCategory
_TEXT	ENDS
; Function compile flags: /Ogtp
; File d:\developer\microsoft visual studio 14.0\vc\atlmfc\include\atltrace.h
;	COMDAT ??__EatlTraceException@ATL@@YAXXZ
text$di	SEGMENT
??__EatlTraceException@ATL@@YAXXZ PROC			; ATL::`dynamic initializer for 'atlTraceException'', COMDAT

; 481  : 	CTrace::RegisterCategory(pszCategoryName, traceCategory);

  00000	68 00 20 00 00	 push	 8192			; 00002000H
  00005	68 00 00 00 00	 push	 OFFSET ??_C@_1CE@IMMADNAP@?$AAa?$AAt?$AAl?$AAT?$AAr?$AAa?$AAc?$AAe?$AAE?$AAx?$AAc?$AAe?$AAp?$AAt?$AAi?$AAo?$AAn?$AA?$AA@
  0000a	e8 00 00 00 00	 call	 ?RegisterCategory@CTrace@ATL@@SAXPB_WI@Z ; ATL::CTrace::RegisterCategory
  0000f	83 c4 08	 add	 esp, 8

; 110  : __declspec(selectany) CTraceCategoryEx<CTraceCategoryEx<>::TraceException> atlTraceException(_T("atlTraceException"));

  00012	c3		 ret	 0
??__EatlTraceException@ATL@@YAXXZ ENDP			; ATL::`dynamic initializer for 'atlTraceException''
text$di	ENDS
; Function compile flags: /Ogtp
; File d:\developer\microsoft visual studio 14.0\vc\atlmfc\include\atltrace.h
;	COMDAT ??0?$CTraceCategoryEx@$0CAAA@$0A@@ATL@@QAE@PB_W@Z
_TEXT	SEGMENT
_pszCategoryName$ = 8					; size = 4
??0?$CTraceCategoryEx@$0CAAA@$0A@@ATL@@QAE@PB_W@Z PROC	; ATL::CTraceCategoryEx<8192,0>::CTraceCategoryEx<8192,0>, COMDAT
; _this$ = ecx

; 480  : {

  00000	55		 push	 ebp
  00001	8b ec		 mov	 ebp, esp
  00003	56		 push	 esi

; 481  : 	CTrace::RegisterCategory(pszCategoryName, traceCategory);

  00004	68 00 20 00 00	 push	 8192			; 00002000H
  00009	ff 75 08	 push	 DWORD PTR _pszCategoryName$[ebp]
  0000c	8b f1		 mov	 esi, ecx
  0000e	e8 00 00 00 00	 call	 ?RegisterCategory@CTrace@ATL@@SAXPB_WI@Z ; ATL::CTrace::RegisterCategory
  00013	83 c4 08	 add	 esp, 8

; 482  : }

  00016	8b c6		 mov	 eax, esi
  00018	5e		 pop	 esi
  00019	5d		 pop	 ebp
  0001a	c2 04 00	 ret	 4
??0?$CTraceCategoryEx@$0CAAA@$0A@@ATL@@QAE@PB_W@Z ENDP	; ATL::CTraceCategoryEx<8192,0>::CTraceCategoryEx<8192,0>
_TEXT	ENDS
; Function compile flags: /Ogtp
; File d:\study\数据结构与算法综合实验\连连看游戏\llkpro17.6.18\lianliankan\gameexception.cpp
;	COMDAT ?__empty_global_delete@@YAXPAXI@Z
_TEXT	SEGMENT
___formal$ = 8						; size = 4
___formal$ = 12						; size = 4
?__empty_global_delete@@YAXPAXI@Z PROC			; __empty_global_delete, COMDAT

  00000	c3		 ret	 0
?__empty_global_delete@@YAXPAXI@Z ENDP			; __empty_global_delete
_TEXT	ENDS
; Function compile flags: /Ogtp
; File d:\study\数据结构与算法综合实验\连连看游戏\llkpro17.6.18\lianliankan\gameexception.cpp
;	COMDAT ?__empty_global_delete@@YAXPAX@Z
_TEXT	SEGMENT
___formal$ = 8						; size = 4
?__empty_global_delete@@YAXPAX@Z PROC			; __empty_global_delete, COMDAT

  00000	c3		 ret	 0
?__empty_global_delete@@YAXPAX@Z ENDP			; __empty_global_delete
_TEXT	ENDS
END
