; Listing generated by Microsoft (R) Optimizing Compiler Version 19.00.24215.1 

	TITLE	D:\Study\数据结构与算法综合实验\连连看游戏\LLKPro17.6.18\Lianliankan\LLKDlg.cpp
	.686P
	.XMM
	include listing.inc
	.model	flat

INCLUDELIB MSVCRTD
INCLUDELIB OLDNAMES

PUBLIC	?__LINE__Var@?0??RegisterCategory@CTrace@ATL@@SAXPB_WI@Z@4JA ; `ATL::CTrace::RegisterCategory'::`1'::__LINE__Var
PUBLIC	??_C@_1EO@EBPPKGOM@?$AAf?$AAa?$AAl?$AAs?$AAe?$AA?5?$AA?$CG?$AA?$CG?$AA?5?$AA?$CC?$AAT?$AAo?$AAo?$AA?5?$AAm?$AAa?$AAn?$AAy?$AA?5?$AAc?$AAa?$AAt?$AAe?$AAg?$AAo?$AAr?$AAi?$AAe?$AAs?$AA?5?$AAd?$AAe@ ; `string'
PUBLIC	??_C@_1IO@PCOKKAMF@?$AAd?$AA?3?$AA?2?$AAd?$AAe?$AAv?$AAe?$AAl?$AAo?$AAp?$AAe?$AAr?$AA?2?$AAm?$AAi?$AAc?$AAr?$AAo?$AAs?$AAo?$AAf?$AAt?$AA?5?$AAv?$AAi?$AAs?$AAu?$AAa?$AAl?$AA?5?$AAs?$AAt@ ; `string'
PUBLIC	??_C@_1CE@IMMADNAP@?$AAa?$AAt?$AAl?$AAT?$AAr?$AAa?$AAc?$AAe?$AAE?$AAx?$AAc?$AAe?$AAp?$AAt?$AAi?$AAo?$AAn?$AA?$AA@ ; `string'
PUBLIC	?__LINE__Var@?0???0?$CTraceCategoryEx@$0CAAA@$0A@@ATL@@QAE@PB_W@Z@4JA ; `ATL::CTraceCategoryEx<8192,0>::CTraceCategoryEx<8192,0>'::`1'::__LINE__Var
PUBLIC	?OnQueryDragIcon@CLLKDlg@@IAEPAUHICON__@@XZ	; CLLKDlg::OnQueryDragIcon
PUBLIC	?OnSysCommand@CLLKDlg@@IAEXIJ@Z			; CLLKDlg::OnSysCommand
PUBLIC	?OnPaint@CLLKDlg@@IAEXXZ			; CLLKDlg::OnPaint
PUBLIC	?OnClose@CLLKDlg@@IAEXXZ			; CLLKDlg::OnClose
PUBLIC	?OnBnClickedBtnBasic@CLLKDlg@@QAEXXZ		; CLLKDlg::OnBnClickedBtnBasic
PUBLIC	?OnBnClickedBtnExit@CLLKDlg@@QAEXXZ		; CLLKDlg::OnBnClickedBtnExit
PUBLIC	?OnBnClickedBtnSetting@CLLKDlg@@QAEXXZ		; CLLKDlg::OnBnClickedBtnSetting
PUBLIC	?OnBnClickedBtnHelp@CLLKDlg@@QAEXXZ		; CLLKDlg::OnBnClickedBtnHelp
PUBLIC	?OnBnClickedBtnRank@CLLKDlg@@QAEXXZ		; CLLKDlg::OnBnClickedBtnRank
PUBLIC	?OnBnClickedBtnRelax@CLLKDlg@@QAEXXZ		; CLLKDlg::OnBnClickedBtnRelax
PUBLIC	?OnBnClickedBtnLevel@CLLKDlg@@QAEXXZ		; CLLKDlg::OnBnClickedBtnLevel
PUBLIC	?m_nLastCategory@CTrace@ATL@@1IA		; ATL::CTrace::m_nLastCategory
PUBLIC	?m_nMap@CTrace@ATL@@1PAUCategoryMap@12@A	; ATL::CTrace::m_nMap
PUBLIC	??_C@_17CNPHIMPH@?$AA?$CF?$AAl?$AAs?$AA?$AA@	; `string'
EXTRN	?GetThisMessageMap@CDialogEx@@KGPBUAFX_MSGMAP@@XZ:PROC ; CDialogEx::GetThisMessageMap
;	COMDAT ?m_nLastCategory@CTrace@ATL@@1IA
_BSS	SEGMENT
?m_nLastCategory@CTrace@ATL@@1IA DD 01H DUP (?)		; ATL::CTrace::m_nLastCategory
_BSS	ENDS
;	COMDAT ?m_nMap@CTrace@ATL@@1PAUCategoryMap@12@A
_BSS	SEGMENT
?m_nMap@CTrace@ATL@@1PAUCategoryMap@12@A DB 02080H DUP (?) ; ATL::CTrace::m_nMap
_BSS	ENDS
;	COMDAT ??_C@_17CNPHIMPH@?$AA?$CF?$AAl?$AAs?$AA?$AA@
CONST	SEGMENT
??_C@_17CNPHIMPH@?$AA?$CF?$AAl?$AAs?$AA?$AA@ DB '%', 00H, 'l', 00H, 's', 00H
	DB	00H, 00H					; `string'
CONST	ENDS
;	COMDAT ?__LINE__Var@?0???0?$CTraceCategoryEx@$0CAAA@$0A@@ATL@@QAE@PB_W@Z@4JA
_DATA	SEGMENT
?__LINE__Var@?0???0?$CTraceCategoryEx@$0CAAA@$0A@@ATL@@QAE@PB_W@Z@4JA DD 01e0H ; `ATL::CTraceCategoryEx<8192,0>::CTraceCategoryEx<8192,0>'::`1'::__LINE__Var
_DATA	ENDS
;	COMDAT ??_C@_1CE@IMMADNAP@?$AAa?$AAt?$AAl?$AAT?$AAr?$AAa?$AAc?$AAe?$AAE?$AAx?$AAc?$AAe?$AAp?$AAt?$AAi?$AAo?$AAn?$AA?$AA@
CONST	SEGMENT
??_C@_1CE@IMMADNAP@?$AAa?$AAt?$AAl?$AAT?$AAr?$AAa?$AAc?$AAe?$AAE?$AAx?$AAc?$AAe?$AAp?$AAt?$AAi?$AAo?$AAn?$AA?$AA@ DB 'a'
	DB	00H, 't', 00H, 'l', 00H, 'T', 00H, 'r', 00H, 'a', 00H, 'c', 00H
	DB	'e', 00H, 'E', 00H, 'x', 00H, 'c', 00H, 'e', 00H, 'p', 00H, 't'
	DB	00H, 'i', 00H, 'o', 00H, 'n', 00H, 00H, 00H	; `string'
CONST	ENDS
;	COMDAT ??_C@_1IO@PCOKKAMF@?$AAd?$AA?3?$AA?2?$AAd?$AAe?$AAv?$AAe?$AAl?$AAo?$AAp?$AAe?$AAr?$AA?2?$AAm?$AAi?$AAc?$AAr?$AAo?$AAs?$AAo?$AAf?$AAt?$AA?5?$AAv?$AAi?$AAs?$AAu?$AAa?$AAl?$AA?5?$AAs?$AAt@
CONST	SEGMENT
??_C@_1IO@PCOKKAMF@?$AAd?$AA?3?$AA?2?$AAd?$AAe?$AAv?$AAe?$AAl?$AAo?$AAp?$AAe?$AAr?$AA?2?$AAm?$AAi?$AAc?$AAr?$AAo?$AAs?$AAo?$AAf?$AAt?$AA?5?$AAv?$AAi?$AAs?$AAu?$AAa?$AAl?$AA?5?$AAs?$AAt@ DB 'd'
	DB	00H, ':', 00H, '\', 00H, 'd', 00H, 'e', 00H, 'v', 00H, 'e', 00H
	DB	'l', 00H, 'o', 00H, 'p', 00H, 'e', 00H, 'r', 00H, '\', 00H, 'm'
	DB	00H, 'i', 00H, 'c', 00H, 'r', 00H, 'o', 00H, 's', 00H, 'o', 00H
	DB	'f', 00H, 't', 00H, ' ', 00H, 'v', 00H, 'i', 00H, 's', 00H, 'u'
	DB	00H, 'a', 00H, 'l', 00H, ' ', 00H, 's', 00H, 't', 00H, 'u', 00H
	DB	'd', 00H, 'i', 00H, 'o', 00H, ' ', 00H, '1', 00H, '4', 00H, '.'
	DB	00H, '0', 00H, '\', 00H, 'v', 00H, 'c', 00H, '\', 00H, 'a', 00H
	DB	't', 00H, 'l', 00H, 'm', 00H, 'f', 00H, 'c', 00H, '\', 00H, 'i'
	DB	00H, 'n', 00H, 'c', 00H, 'l', 00H, 'u', 00H, 'd', 00H, 'e', 00H
	DB	'\', 00H, 'a', 00H, 't', 00H, 'l', 00H, 't', 00H, 'r', 00H, 'a'
	DB	00H, 'c', 00H, 'e', 00H, '.', 00H, 'h', 00H, 00H, 00H ; `string'
CONST	ENDS
;	COMDAT ??_C@_1EO@EBPPKGOM@?$AAf?$AAa?$AAl?$AAs?$AAe?$AA?5?$AA?$CG?$AA?$CG?$AA?5?$AA?$CC?$AAT?$AAo?$AAo?$AA?5?$AAm?$AAa?$AAn?$AAy?$AA?5?$AAc?$AAa?$AAt?$AAe?$AAg?$AAo?$AAr?$AAi?$AAe?$AAs?$AA?5?$AAd?$AAe@
CONST	SEGMENT
??_C@_1EO@EBPPKGOM@?$AAf?$AAa?$AAl?$AAs?$AAe?$AA?5?$AA?$CG?$AA?$CG?$AA?5?$AA?$CC?$AAT?$AAo?$AAo?$AA?5?$AAm?$AAa?$AAn?$AAy?$AA?5?$AAc?$AAa?$AAt?$AAe?$AAg?$AAo?$AAr?$AAi?$AAe?$AAs?$AA?5?$AAd?$AAe@ DB 'f'
	DB	00H, 'a', 00H, 'l', 00H, 's', 00H, 'e', 00H, ' ', 00H, '&', 00H
	DB	'&', 00H, ' ', 00H, '"', 00H, 'T', 00H, 'o', 00H, 'o', 00H, ' '
	DB	00H, 'm', 00H, 'a', 00H, 'n', 00H, 'y', 00H, ' ', 00H, 'c', 00H
	DB	'a', 00H, 't', 00H, 'e', 00H, 'g', 00H, 'o', 00H, 'r', 00H, 'i'
	DB	00H, 'e', 00H, 's', 00H, ' ', 00H, 'd', 00H, 'e', 00H, 'f', 00H
	DB	'i', 00H, 'n', 00H, 'e', 00H, 'd', 00H, '"', 00H, 00H, 00H ; `string'
CONST	ENDS
;	COMDAT ?__LINE__Var@?0??RegisterCategory@CTrace@ATL@@SAXPB_WI@Z@4JA
_DATA	SEGMENT
?__LINE__Var@?0??RegisterCategory@CTrace@ATL@@SAXPB_WI@Z@4JA DD 0149H ; `ATL::CTrace::RegisterCategory'::`1'::__LINE__Var
_DATA	ENDS
CONST	SEGMENT
?_messageEntries@?1??GetThisMessageMap@CLLKDlg@@KGPBUAFX_MSGMAP@@XZ@4QBUAFX_MSGMAP_ENTRY@@B DD 0112H ; `CLLKDlg::GetThisMessageMap'::`2'::_messageEntries
	DD	00H
	DD	00H
	DD	00H
	DD	01fH
	DD	FLAT:?OnSysCommand@CLLKDlg@@IAEXIJ@Z
	DD	010H
	DD	00H
	DD	00H
	DD	00H
	DD	013H
	DD	FLAT:?OnClose@CLLKDlg@@IAEXXZ
	DD	0fH
	DD	00H
	DD	00H
	DD	00H
	DD	013H
	DD	FLAT:?OnPaint@CLLKDlg@@IAEXXZ
	DD	037H
	DD	00H
	DD	00H
	DD	00H
	DD	029H
	DD	FLAT:?OnQueryDragIcon@CLLKDlg@@IAEPAUHICON__@@XZ
	DD	0111H
	DD	00H
	DD	03e8H
	DD	03e8H
	DD	03aH
	DD	FLAT:?OnBnClickedBtnBasic@CLLKDlg@@QAEXXZ
	DD	0111H
	DD	00H
	DD	03e9H
	DD	03e9H
	DD	03aH
	DD	FLAT:?OnBnClickedBtnRelax@CLLKDlg@@QAEXXZ
	DD	0111H
	DD	00H
	DD	03eaH
	DD	03eaH
	DD	03aH
	DD	FLAT:?OnBnClickedBtnLevel@CLLKDlg@@QAEXXZ
	DD	0111H
	DD	00H
	DD	03eeH
	DD	03eeH
	DD	03aH
	DD	FLAT:?OnBnClickedBtnSetting@CLLKDlg@@QAEXXZ
	DD	0111H
	DD	00H
	DD	03efH
	DD	03efH
	DD	03aH
	DD	FLAT:?OnBnClickedBtnHelp@CLLKDlg@@QAEXXZ
	DD	0111H
	DD	00H
	DD	03edH
	DD	03edH
	DD	03aH
	DD	FLAT:?OnBnClickedBtnRank@CLLKDlg@@QAEXXZ
	DD	0111H
	DD	00H
	DD	03ebH
	DD	03ebH
	DD	03aH
	DD	FLAT:?OnBnClickedBtnExit@CLLKDlg@@QAEXXZ
	DD	00H
	DD	00H
	DD	00H
	DD	00H
	DD	00H
	DD	00H
?messageMap@?1??GetThisMessageMap@CLLKDlg@@KGPBUAFX_MSGMAP@@XZ@4U3@B DD FLAT:?GetThisMessageMap@CDialogEx@@KGPBUAFX_MSGMAP@@XZ ; `CLLKDlg::GetThisMessageMap'::`2'::messageMap
	DD	FLAT:?_messageEntries@?1??GetThisMessageMap@CLLKDlg@@KGPBUAFX_MSGMAP@@XZ@4QBUAFX_MSGMAP_ENTRY@@B
?_messageEntries@?1??GetThisMessageMap@CAboutDlg@@KGPBUAFX_MSGMAP@@XZ@4QBUAFX_MSGMAP_ENTRY@@B DD 00H ; `CAboutDlg::GetThisMessageMap'::`2'::_messageEntries
	DD	00H
	DD	00H
	DD	00H
	DD	00H
	DD	00H
?messageMap@?1??GetThisMessageMap@CAboutDlg@@KGPBUAFX_MSGMAP@@XZ@4U3@B DD FLAT:?GetThisMessageMap@CDialogEx@@KGPBUAFX_MSGMAP@@XZ ; `CAboutDlg::GetThisMessageMap'::`2'::messageMap
	DD	FLAT:?_messageEntries@?1??GetThisMessageMap@CAboutDlg@@KGPBUAFX_MSGMAP@@XZ@4QBUAFX_MSGMAP_ENTRY@@B
CONST	ENDS
PUBLIC	?__empty_global_delete@@YAXPAX@Z		; __empty_global_delete
PUBLIC	?__empty_global_delete@@YAXPAXI@Z		; __empty_global_delete
PUBLIC	?RegisterCategory@CTrace@ATL@@SAXPB_WI@Z	; ATL::CTrace::RegisterCategory
PUBLIC	??1CDialogEx@@UAE@XZ				; CDialogEx::~CDialogEx
PUBLIC	?_GetBaseClass@CLLKDlg@@KGPAUCRuntimeClass@@XZ	; CLLKDlg::_GetBaseClass
PUBLIC	?GetThisClass@CLLKDlg@@SGPAUCRuntimeClass@@XZ	; CLLKDlg::GetThisClass
PUBLIC	?GetRuntimeClass@CLLKDlg@@UBEPAUCRuntimeClass@@XZ ; CLLKDlg::GetRuntimeClass
PUBLIC	??0CLLKDlg@@QAE@PAVCWnd@@@Z			; CLLKDlg::CLLKDlg
PUBLIC	??1CLLKDlg@@UAE@XZ				; CLLKDlg::~CLLKDlg
PUBLIC	?DoDataExchange@CLLKDlg@@MAEXPAVCDataExchange@@@Z ; CLLKDlg::DoDataExchange
PUBLIC	?CanExit@CLLKDlg@@IAEHXZ			; CLLKDlg::CanExit
PUBLIC	?OnInitDialog@CLLKDlg@@MAEHXZ			; CLLKDlg::OnInitDialog
PUBLIC	?OnCancel@CLLKDlg@@MAEXXZ			; CLLKDlg::OnCancel
PUBLIC	?GetThisMessageMap@CLLKDlg@@KGPBUAFX_MSGMAP@@XZ	; CLLKDlg::GetThisMessageMap
PUBLIC	?GetMessageMap@CLLKDlg@@MBEPBUAFX_MSGMAP@@XZ	; CLLKDlg::GetMessageMap
PUBLIC	?InitBackground@CLLKDlg@@AAEXXZ			; CLLKDlg::InitBackground
PUBLIC	?UpdateWindow@CLLKDlg@@AAEXXZ			; CLLKDlg::UpdateWindow
PUBLIC	??_GCLLKDlg@@UAEPAXI@Z				; CLLKDlg::`scalar deleting destructor'
PUBLIC	??0CAboutDlg@@QAE@XZ				; CAboutDlg::CAboutDlg
PUBLIC	?DoDataExchange@CAboutDlg@@MAEXPAVCDataExchange@@@Z ; CAboutDlg::DoDataExchange
PUBLIC	?GetThisMessageMap@CAboutDlg@@KGPBUAFX_MSGMAP@@XZ ; CAboutDlg::GetThisMessageMap
PUBLIC	?GetMessageMap@CAboutDlg@@MBEPBUAFX_MSGMAP@@XZ	; CAboutDlg::GetMessageMap
PUBLIC	??1CAboutDlg@@UAE@XZ				; CAboutDlg::~CAboutDlg
PUBLIC	??_GCAboutDlg@@UAEPAXI@Z			; CAboutDlg::`scalar deleting destructor'
PUBLIC	?atlTraceException@ATL@@3V?$CTraceCategoryEx@$0CAAA@$0A@@1@A ; ATL::atlTraceException
PUBLIC	??_R1A@?0A@EA@CObject@@8			; CObject::`RTTI Base Class Descriptor at (0,-1,0,64)'
PUBLIC	??_R0?AVCObject@@@8				; CObject `RTTI Type Descriptor'
PUBLIC	??_R3CObject@@8					; CObject::`RTTI Class Hierarchy Descriptor'
PUBLIC	??_R2CObject@@8					; CObject::`RTTI Base Class Array'
PUBLIC	??_R1A@?0A@EA@CDialog@@8			; CDialog::`RTTI Base Class Descriptor at (0,-1,0,64)'
PUBLIC	??_R0?AVCDialog@@@8				; CDialog `RTTI Type Descriptor'
PUBLIC	??_R3CDialog@@8					; CDialog::`RTTI Class Hierarchy Descriptor'
PUBLIC	??_R2CDialog@@8					; CDialog::`RTTI Base Class Array'
PUBLIC	??_R1A@?0A@EA@CWnd@@8				; CWnd::`RTTI Base Class Descriptor at (0,-1,0,64)'
PUBLIC	??_R0?AVCWnd@@@8				; CWnd `RTTI Type Descriptor'
PUBLIC	??_R3CWnd@@8					; CWnd::`RTTI Class Hierarchy Descriptor'
PUBLIC	??_R2CWnd@@8					; CWnd::`RTTI Base Class Array'
PUBLIC	??_R1A@?0A@EA@CCmdTarget@@8			; CCmdTarget::`RTTI Base Class Descriptor at (0,-1,0,64)'
PUBLIC	??_R0?AVCCmdTarget@@@8				; CCmdTarget `RTTI Type Descriptor'
PUBLIC	??_R3CCmdTarget@@8				; CCmdTarget::`RTTI Class Hierarchy Descriptor'
PUBLIC	??_R2CCmdTarget@@8				; CCmdTarget::`RTTI Base Class Array'
PUBLIC	?classCLLKDlg@CLLKDlg@@2UCRuntimeClass@@B	; CLLKDlg::classCLLKDlg
PUBLIC	??_7CLLKDlg@@6B@				; CLLKDlg::`vftable'
PUBLIC	??_7CAboutDlg@@6B@				; CAboutDlg::`vftable'
PUBLIC	??_C@_07JGNKFJJE@CLLKDlg?$AA@			; `string'
PUBLIC	?__LINE__Var@?0??OnInitDialog@CLLKDlg@@MAEHXZ@4JA ; `CLLKDlg::OnInitDialog'::`1'::__LINE__Var
PUBLIC	??_C@_0FA@JCGMDLPD@d?3?2study?2?J?$PN?$LO?$NN?$LN?a?$LJ?$LJ?S?k?K?c?$LH?$KI?W?$NL?$LK?O?J?$LF?Q?i?2@ ; `string'
PUBLIC	??_C@_15EGCHAEPE@c?Py?3?$AA?$AA@		; `string'
PUBLIC	??_C@_1BA@LALLHPFH@xn?$FL?$JO?$IJ?$IB?$JA?$AAQ?zT?$BH?$PP?$BP?$AA?$AA@ ; `string'
PUBLIC	?__LINE__Var@?0??OnBnClickedBtnBasic@CLLKDlg@@QAEXXZ@4JA ; `CLLKDlg::OnBnClickedBtnBasic'::`1'::__LINE__Var
PUBLIC	?__LINE__Var@?0??OnBnClickedBtnRelax@CLLKDlg@@QAEXXZ@4JA ; `CLLKDlg::OnBnClickedBtnRelax'::`1'::__LINE__Var
PUBLIC	?__LINE__Var@?0??OnBnClickedBtnLevel@CLLKDlg@@QAEXXZ@4JA ; `CLLKDlg::OnBnClickedBtnLevel'::`1'::__LINE__Var
PUBLIC	??_R4CLLKDlg@@6B@				; CLLKDlg::`RTTI Complete Object Locator'
PUBLIC	??_R0?AVCLLKDlg@@@8				; CLLKDlg `RTTI Type Descriptor'
PUBLIC	??_R3CLLKDlg@@8					; CLLKDlg::`RTTI Class Hierarchy Descriptor'
PUBLIC	??_R2CLLKDlg@@8					; CLLKDlg::`RTTI Base Class Array'
PUBLIC	??_R1A@?0A@EA@CLLKDlg@@8			; CLLKDlg::`RTTI Base Class Descriptor at (0,-1,0,64)'
PUBLIC	??_R1A@?0A@EA@CDialogEx@@8			; CDialogEx::`RTTI Base Class Descriptor at (0,-1,0,64)'
PUBLIC	??_R0?AVCDialogEx@@@8				; CDialogEx `RTTI Type Descriptor'
PUBLIC	??_R3CDialogEx@@8				; CDialogEx::`RTTI Class Hierarchy Descriptor'
PUBLIC	??_R2CDialogEx@@8				; CDialogEx::`RTTI Base Class Array'
PUBLIC	??_R4CAboutDlg@@6B@				; CAboutDlg::`RTTI Complete Object Locator'
PUBLIC	??_R0?AVCAboutDlg@@@8				; CAboutDlg `RTTI Type Descriptor'
PUBLIC	??_R3CAboutDlg@@8				; CAboutDlg::`RTTI Class Hierarchy Descriptor'
PUBLIC	??_R2CAboutDlg@@8				; CAboutDlg::`RTTI Base Class Array'
PUBLIC	??_R1A@?0A@EA@CAboutDlg@@8			; CAboutDlg::`RTTI Base Class Descriptor at (0,-1,0,64)'
EXTRN	?__global_delete@@YAXPAXI@Z:PROC		; __global_delete
EXTRN	__imp__wcscpy_s:PROC
EXTRN	__imp__PeekMessageW@20:PROC
EXTRN	__imp__PostQuitMessage@4:PROC
EXTRN	__imp__GetSystemMetrics@4:PROC
EXTRN	__imp___CrtDbgReport:PROC
EXTRN	__imp___CrtDbgReportW:PROC
EXTRN	??3CObject@@SGXPAX@Z:PROC			; CObject::operator delete
EXTRN	??2CObject@@SGPAXIPBDH@Z:PROC			; CObject::operator new
EXTRN	??3CObject@@SGXPAXPBDH@Z:PROC			; CObject::operator delete
EXTRN	?Serialize@CObject@@UAEXAAVCArchive@@@Z:PROC	; CObject::Serialize
EXTRN	__imp_??B?$CSimpleStringT@_W$00@ATL@@QBEPB_WXZ:PROC
EXTRN	__imp_?IsEmpty@?$CSimpleStringT@_W$00@ATL@@QBE_NXZ:PROC
EXTRN	__imp_??0?$CStringT@_WV?$StrTraitMFC_DLL@_WV?$ChTraitsCRT@_W@ATL@@@@@ATL@@QAE@XZ:PROC
EXTRN	__imp_??1?$CStringT@_WV?$StrTraitMFC_DLL@_WV?$ChTraitsCRT@_W@ATL@@@@@ATL@@QAE@XZ:PROC
EXTRN	__imp_?LoadStringW@?$CStringT@_WV?$StrTraitMFC_DLL@_WV?$ChTraitsCRT@_W@ATL@@@@@ATL@@QAEHI@Z:PROC
EXTRN	??BCGdiObject@@QBEPAXXZ:PROC			; CGdiObject::operator void *
EXTRN	??1CBrush@@UAE@XZ:PROC				; CBrush::~CBrush
EXTRN	??0CBitmap@@QAE@XZ:PROC				; CBitmap::CBitmap
EXTRN	?LoadBitmapW@CBitmap@@QAEHI@Z:PROC		; CBitmap::LoadBitmapW
EXTRN	??1CBitmap@@UAE@XZ:PROC				; CBitmap::~CBitmap
EXTRN	?GetSafeHdc@CDC@@QBEPAUHDC__@@XZ:PROC		; CDC::GetSafeHdc
EXTRN	??0CDC@@QAE@XZ:PROC				; CDC::CDC
EXTRN	?CreateCompatibleDC@CDC@@QAEHPAV1@@Z:PROC	; CDC::CreateCompatibleDC
EXTRN	?DrawIcon@CDC@@QAEHHHPAUHICON__@@@Z:PROC	; CDC::DrawIcon
EXTRN	?BitBlt@CDC@@QAEHHHHHPAV1@HHK@Z:PROC		; CDC::BitBlt
EXTRN	??1CDC@@UAE@XZ:PROC				; CDC::~CDC
EXTRN	?SelectObject@CDC@@QAEPAXPAX@Z:PROC		; CDC::SelectObject
EXTRN	??0CPaintDC@@QAE@PAVCWnd@@@Z:PROC		; CPaintDC::CPaintDC
EXTRN	??1CPaintDC@@UAE@XZ:PROC			; CPaintDC::~CPaintDC
EXTRN	??0CClientDC@@QAE@PAVCWnd@@@Z:PROC		; CClientDC::CClientDC
EXTRN	??1CClientDC@@UAE@XZ:PROC			; CClientDC::~CClientDC
EXTRN	?AppendMenuW@CMenu@@QAEHIIPB_W@Z:PROC		; CMenu::AppendMenuW
EXTRN	?IsInvokeAllowed@CCmdTarget@@UAEHJ@Z:PROC	; CCmdTarget::IsInvokeAllowed
EXTRN	?GetDispatchIID@CCmdTarget@@UAEHPAU_GUID@@@Z:PROC ; CCmdTarget::GetDispatchIID
EXTRN	?GetTypeInfoCount@CCmdTarget@@UAEIXZ:PROC	; CCmdTarget::GetTypeInfoCount
EXTRN	?GetTypeLibCache@CCmdTarget@@UAEPAVCTypeLibCache@@XZ:PROC ; CCmdTarget::GetTypeLibCache
EXTRN	?GetTypeLib@CCmdTarget@@UAEJKPAPAUITypeLib@@@Z:PROC ; CCmdTarget::GetTypeLib
EXTRN	?GetCommandMap@CCmdTarget@@MBEPBUAFX_OLECMDMAP@@XZ:PROC ; CCmdTarget::GetCommandMap
EXTRN	?GetDispatchMap@CCmdTarget@@MBEPBUAFX_DISPMAP@@XZ:PROC ; CCmdTarget::GetDispatchMap
EXTRN	?GetConnectionMap@CCmdTarget@@MBEPBUAFX_CONNECTIONMAP@@XZ:PROC ; CCmdTarget::GetConnectionMap
EXTRN	?GetEventSinkMap@CCmdTarget@@MBEPBUAFX_EVENTSINKMAP@@XZ:PROC ; CCmdTarget::GetEventSinkMap
EXTRN	?OnCreateAggregates@CCmdTarget@@UAEHXZ:PROC	; CCmdTarget::OnCreateAggregates
EXTRN	?GetInterfaceHook@CCmdTarget@@UAEPAUIUnknown@@PBX@Z:PROC ; CCmdTarget::GetInterfaceHook
EXTRN	?GetExtraConnectionPoints@CCmdTarget@@MAEHPAVCPtrArray@@@Z:PROC ; CCmdTarget::GetExtraConnectionPoints
EXTRN	?GetConnectionHook@CCmdTarget@@MAEPAUIConnectionPoint@@ABU_GUID@@@Z:PROC ; CCmdTarget::GetConnectionHook
EXTRN	?PreSubclassWindow@CWnd@@UAEXXZ:PROC		; CWnd::PreSubclassWindow
EXTRN	?Create@CWnd@@UAEHPB_W0KABUtagRECT@@PAV1@IPAUCCreateContext@@@Z:PROC ; CWnd::Create
EXTRN	?CreateEx@CWnd@@UAEHKPB_W0KHHHHPAUHWND__@@PAUHMENU__@@PAX@Z:PROC ; CWnd::CreateEx
EXTRN	?CreateEx@CWnd@@UAEHKPB_W0KABUtagRECT@@PAV1@IPAX@Z:PROC ; CWnd::CreateEx
EXTRN	?DestroyWindow@CWnd@@UAEHXZ:PROC		; CWnd::DestroyWindow
EXTRN	?PreCreateWindow@CWnd@@UAEHAAUtagCREATESTRUCTW@@@Z:PROC ; CWnd::PreCreateWindow
EXTRN	?CalcWindowRect@CWnd@@UAEXPAUtagRECT@@I@Z:PROC	; CWnd::CalcWindowRect
EXTRN	?SendMessageW@CWnd@@QBEJIIJ@Z:PROC		; CWnd::SendMessageW
EXTRN	?GetMenu@CWnd@@UBEPAVCMenu@@XZ:PROC		; CWnd::GetMenu
EXTRN	?SetMenu@CWnd@@UAEHPAVCMenu@@@Z:PROC		; CWnd::SetMenu
EXTRN	?GetSystemMenu@CWnd@@QBEPAVCMenu@@H@Z:PROC	; CWnd::GetSystemMenu
EXTRN	?IsIconic@CWnd@@QBEHXZ:PROC			; CWnd::IsIconic
EXTRN	?MoveWindow@CWnd@@QAEXHHHHH@Z:PROC		; CWnd::MoveWindow
EXTRN	?GetWindowRect@CWnd@@QBEXPAUtagRECT@@@Z:PROC	; CWnd::GetWindowRect
EXTRN	?GetClientRect@CWnd@@QBEXPAUtagRECT@@@Z:PROC	; CWnd::GetClientRect
EXTRN	?ShowWindow@CWnd@@QAEHH@Z:PROC			; CWnd::ShowWindow
EXTRN	?OnToolHitTest@CWnd@@UBEHVCPoint@@PAUtagTOOLINFOW@@@Z:PROC ; CWnd::OnToolHitTest
EXTRN	?GetScrollBarCtrl@CWnd@@UBEPAVCScrollBar@@H@Z:PROC ; CWnd::GetScrollBarCtrl
EXTRN	?MessageBoxW@CWnd@@QAEHPB_W0I@Z:PROC		; CWnd::MessageBoxW
EXTRN	?SetIcon@CWnd@@QAEPAUHICON__@@PAU2@H@Z:PROC	; CWnd::SetIcon
EXTRN	?WinHelpW@CWnd@@UAEXKI@Z:PROC			; CWnd::WinHelpW
EXTRN	?HtmlHelpW@CWnd@@UAEXKI@Z:PROC			; CWnd::HtmlHelpW
EXTRN	?WinHelpInternal@CWnd@@UAEXKI@Z:PROC		; CWnd::WinHelpInternal
EXTRN	?CenterWindow@CWnd@@QAEXPAV1@@Z:PROC		; CWnd::CenterWindow
EXTRN	?ContinueModal@CWnd@@UAEHXZ:PROC		; CWnd::ContinueModal
EXTRN	?EndModalLoop@CWnd@@UAEXH@Z:PROC		; CWnd::EndModalLoop
EXTRN	?OnDrawIconicThumbnailOrLivePreview@CWnd@@UAEXAAVCDC@@VCRect@@VCSize@@HAAH@Z:PROC ; CWnd::OnDrawIconicThumbnailOrLivePreview
EXTRN	?GetInterfaceMap@CWnd@@MBEPBUAFX_INTERFACEMAP@@XZ:PROC ; CWnd::GetInterfaceMap
EXTRN	?EnsureStdObj@CWnd@@UAEJXZ:PROC			; CWnd::EnsureStdObj
EXTRN	?get_accParent@CWnd@@UAEJPAPAUIDispatch@@@Z:PROC ; CWnd::get_accParent
EXTRN	?get_accChildCount@CWnd@@UAEJPAJ@Z:PROC		; CWnd::get_accChildCount
EXTRN	?get_accChild@CWnd@@UAEJUtagVARIANT@@PAPAUIDispatch@@@Z:PROC ; CWnd::get_accChild
EXTRN	?get_accName@CWnd@@UAEJUtagVARIANT@@PAPA_W@Z:PROC ; CWnd::get_accName
EXTRN	?get_accValue@CWnd@@UAEJUtagVARIANT@@PAPA_W@Z:PROC ; CWnd::get_accValue
EXTRN	?get_accDescription@CWnd@@UAEJUtagVARIANT@@PAPA_W@Z:PROC ; CWnd::get_accDescription
EXTRN	?get_accRole@CWnd@@UAEJUtagVARIANT@@PAU2@@Z:PROC ; CWnd::get_accRole
EXTRN	?get_accState@CWnd@@UAEJUtagVARIANT@@PAU2@@Z:PROC ; CWnd::get_accState
EXTRN	?get_accHelp@CWnd@@UAEJUtagVARIANT@@PAPA_W@Z:PROC ; CWnd::get_accHelp
EXTRN	?get_accHelpTopic@CWnd@@UAEJPAPA_WUtagVARIANT@@PAJ@Z:PROC ; CWnd::get_accHelpTopic
EXTRN	?get_accKeyboardShortcut@CWnd@@UAEJUtagVARIANT@@PAPA_W@Z:PROC ; CWnd::get_accKeyboardShortcut
EXTRN	?get_accFocus@CWnd@@UAEJPAUtagVARIANT@@@Z:PROC	; CWnd::get_accFocus
EXTRN	?get_accSelection@CWnd@@UAEJPAUtagVARIANT@@@Z:PROC ; CWnd::get_accSelection
EXTRN	?get_accDefaultAction@CWnd@@UAEJUtagVARIANT@@PAPA_W@Z:PROC ; CWnd::get_accDefaultAction
EXTRN	?accSelect@CWnd@@UAEJJUtagVARIANT@@@Z:PROC	; CWnd::accSelect
EXTRN	?accLocation@CWnd@@UAEJPAJ000UtagVARIANT@@@Z:PROC ; CWnd::accLocation
EXTRN	?accNavigate@CWnd@@UAEJJUtagVARIANT@@PAU2@@Z:PROC ; CWnd::accNavigate
EXTRN	?accHitTest@CWnd@@UAEJJJPAUtagVARIANT@@@Z:PROC	; CWnd::accHitTest
EXTRN	?accDoDefaultAction@CWnd@@UAEJUtagVARIANT@@@Z:PROC ; CWnd::accDoDefaultAction
EXTRN	?put_accName@CWnd@@UAEJUtagVARIANT@@PA_W@Z:PROC	; CWnd::put_accName
EXTRN	?put_accValue@CWnd@@UAEJUtagVARIANT@@PA_W@Z:PROC ; CWnd::put_accValue
EXTRN	?SetProxy@CWnd@@UAEJPAUIAccessibleProxy@@@Z:PROC ; CWnd::SetProxy
EXTRN	?CreateAccessibleProxy@CWnd@@UAEJIJPAJ@Z:PROC	; CWnd::CreateAccessibleProxy
EXTRN	?OnNotify@CWnd@@MAEHIJPAJ@Z:PROC		; CWnd::OnNotify
EXTRN	?OnClose@CWnd@@IAEXXZ:PROC			; CWnd::OnClose
EXTRN	?OnSysCommand@CWnd@@IAEXIJ@Z:PROC		; CWnd::OnSysCommand
EXTRN	?GetSuperWndProcAddr@CWnd@@MAEPAP6GJPAUHWND__@@IIJ@ZXZ:PROC ; CWnd::GetSuperWndProcAddr
EXTRN	?DoDataExchange@CWnd@@MAEXPAVCDataExchange@@@Z:PROC ; CWnd::DoDataExchange
EXTRN	?BeginModalState@CWnd@@UAEXXZ:PROC		; CWnd::BeginModalState
EXTRN	?EndModalState@CWnd@@UAEXXZ:PROC		; CWnd::EndModalState
EXTRN	?OnAmbientProperty@CWnd@@UAEHPAVCOleControlSite@@JPAUtagVARIANT@@@Z:PROC ; CWnd::OnAmbientProperty
EXTRN	?WindowProc@CWnd@@MAEJIIJ@Z:PROC		; CWnd::WindowProc
EXTRN	?OnWndMsg@CWnd@@MAEHIIJPAJ@Z:PROC		; CWnd::OnWndMsg
EXTRN	?DefWindowProcW@CWnd@@MAEJIIJ@Z:PROC		; CWnd::DefWindowProcW
EXTRN	?PostNcDestroy@CWnd@@MAEXXZ:PROC		; CWnd::PostNcDestroy
EXTRN	?OnChildNotify@CWnd@@MAEHIIJPAJ@Z:PROC		; CWnd::OnChildNotify
EXTRN	?OnTouchInputs@CWnd@@MAEHIPAUtagTOUCHINPUT@@@Z:PROC ; CWnd::OnTouchInputs
EXTRN	?OnTouchInput@CWnd@@MAEHVCPoint@@HHPAUtagTOUCHINPUT@@@Z:PROC ; CWnd::OnTouchInput
EXTRN	?GetGestureStatus@CWnd@@MAEKVCPoint@@@Z:PROC	; CWnd::GetGestureStatus
EXTRN	?OnGestureZoom@CWnd@@MAEHVCPoint@@J@Z:PROC	; CWnd::OnGestureZoom
EXTRN	?OnGesturePan@CWnd@@MAEHVCPoint@@0@Z:PROC	; CWnd::OnGesturePan
EXTRN	?OnGestureRotate@CWnd@@MAEHVCPoint@@N@Z:PROC	; CWnd::OnGestureRotate
EXTRN	?OnGestureTwoFingerTap@CWnd@@MAEHVCPoint@@@Z:PROC ; CWnd::OnGestureTwoFingerTap
EXTRN	?OnGesturePressAndTap@CWnd@@MAEHVCPoint@@J@Z:PROC ; CWnd::OnGesturePressAndTap
EXTRN	?ResizeDynamicLayout@CWnd@@MAEXXZ:PROC		; CWnd::ResizeDynamicLayout
EXTRN	?IsFrameWnd@CWnd@@UBEHXZ:PROC			; CWnd::IsFrameWnd
EXTRN	?OnFinalRelease@CWnd@@UAEXXZ:PROC		; CWnd::OnFinalRelease
EXTRN	?CreateControlContainer@CWnd@@MAEHPAPAVCOleControlContainer@@@Z:PROC ; CWnd::CreateControlContainer
EXTRN	?CreateControlSite@CWnd@@MAEHPAVCOleControlContainer@@PAPAVCOleControlSite@@IABU_GUID@@@Z:PROC ; CWnd::CreateControlSite
EXTRN	?Create@CDialog@@UAEHPB_WPAVCWnd@@@Z:PROC	; CDialog::Create
EXTRN	?Create@CDialog@@UAEHIPAVCWnd@@@Z:PROC		; CDialog::Create
EXTRN	?CreateIndirect@CDialog@@UAEHPBUDLGTEMPLATE@@PAVCWnd@@PAX@Z:PROC ; CDialog::CreateIndirect
EXTRN	?CreateIndirect@CDialog@@UAEHPAXPAVCWnd@@@Z:PROC ; CDialog::CreateIndirect
EXTRN	?DoModal@CDialog@@UAEHXZ:PROC			; CDialog::DoModal
EXTRN	?OnInitDialog@CDialog@@UAEHXZ:PROC		; CDialog::OnInitDialog
EXTRN	?OnSetFont@CDialog@@UAEXPAVCFont@@@Z:PROC	; CDialog::OnSetFont
EXTRN	?OnOK@CDialog@@MAEXXZ:PROC			; CDialog::OnOK
EXTRN	?OnCancel@CDialog@@MAEXXZ:PROC			; CDialog::OnCancel
EXTRN	??1CDialog@@UAE@XZ:PROC				; CDialog::~CDialog
EXTRN	?AssertValid@CDialog@@UBEXXZ:PROC		; CDialog::AssertValid
EXTRN	?Dump@CDialog@@UBEXAAVCDumpContext@@@Z:PROC	; CDialog::Dump
EXTRN	?OnCmdMsg@CDialog@@UAEHIHPAXPAUAFX_CMDHANDLERINFO@@@Z:PROC ; CDialog::OnCmdMsg
EXTRN	?CheckAutoCenter@CDialog@@UAEHXZ:PROC		; CDialog::CheckAutoCenter
EXTRN	?SetOccDialogInfo@CDialog@@MAEHPAU_AFX_OCC_DIALOG_INFO@@@Z:PROC ; CDialog::SetOccDialogInfo
EXTRN	?GetOccDialogInfo@CDialog@@MAEPAU_AFX_OCC_DIALOG_INFO@@XZ:PROC ; CDialog::GetOccDialogInfo
EXTRN	?PreInitDialog@CDialog@@MAEXXZ:PROC		; CDialog::PreInitDialog
EXTRN	?OnPaint@CDialog@@IAEXXZ:PROC			; CDialog::OnPaint
EXTRN	?AfxGetApp@@YGPAVCWinApp@@XZ:PROC		; AfxGetApp
EXTRN	?LoadIconW@CWinApp@@QBEPAUHICON__@@I@Z:PROC	; CWinApp::LoadIconW
EXTRN	??1CDialogImpl@@MAE@XZ:PROC			; CDialogImpl::~CDialogImpl
EXTRN	?GetThisClass@CDialogEx@@SGPAUCRuntimeClass@@XZ:PROC ; CDialogEx::GetThisClass
EXTRN	?GetRuntimeClass@CDialogEx@@UBEPAUCRuntimeClass@@XZ:PROC ; CDialogEx::GetRuntimeClass
EXTRN	??0CDialogEx@@QAE@IPAVCWnd@@@Z:PROC		; CDialogEx::CDialogEx
EXTRN	?PreTranslateMessage@CDialogEx@@UAEHPAUtagMSG@@@Z:PROC ; CDialogEx::PreTranslateMessage
EXTRN	?OnCommand@CDialogEx@@MAEHIJ@Z:PROC		; CDialogEx::OnCommand
EXTRN	??0CGameHelp@@QAE@PAVCWnd@@@Z:PROC		; CGameHelp::CGameHelp
EXTRN	??1CGameHelp@@UAE@XZ:PROC			; CGameHelp::~CGameHelp
EXTRN	??0CGameDlg@@QAE@HPAVCWnd@@@Z:PROC		; CGameDlg::CGameDlg
EXTRN	??_ECLLKDlg@@UAEPAXI@Z:PROC			; CLLKDlg::`vector deleting destructor'
EXTRN	??_ECAboutDlg@@UAEPAXI@Z:PROC			; CAboutDlg::`vector deleting destructor'
EXTRN	@__security_check_cookie@4:PROC
EXTRN	___CxxFrameHandler3:PROC
EXTRN	_memset:PROC
EXTRN	??_7type_info@@6B@:QWORD			; type_info::`vftable'
EXTRN	___security_cookie:DWORD
;	COMDAT ?atlTraceException@ATL@@3V?$CTraceCategoryEx@$0CAAA@$0A@@1@A
_BSS	SEGMENT
?atlTraceException@ATL@@3V?$CTraceCategoryEx@$0CAAA@$0A@@1@A DD 01H DUP (?) ; ATL::atlTraceException
_BSS	ENDS
;	COMDAT CRT$XCU
CRT$XCU	SEGMENT
?atlTraceException$initializer$@ATL@@3P6AXXZA DD FLAT:??__EatlTraceException@ATL@@YAXXZ ; ATL::atlTraceException$initializer$
CRT$XCU	ENDS
;	COMDAT ??_R1A@?0A@EA@CAboutDlg@@8
rdata$r	SEGMENT
??_R1A@?0A@EA@CAboutDlg@@8 DD FLAT:??_R0?AVCAboutDlg@@@8 ; CAboutDlg::`RTTI Base Class Descriptor at (0,-1,0,64)'
	DD	05H
	DD	00H
	DD	0ffffffffH
	DD	00H
	DD	040H
	DD	FLAT:??_R3CAboutDlg@@8
rdata$r	ENDS
;	COMDAT ??_R2CAboutDlg@@8
rdata$r	SEGMENT
??_R2CAboutDlg@@8 DD FLAT:??_R1A@?0A@EA@CAboutDlg@@8	; CAboutDlg::`RTTI Base Class Array'
	DD	FLAT:??_R1A@?0A@EA@CDialogEx@@8
	DD	FLAT:??_R1A@?0A@EA@CDialog@@8
	DD	FLAT:??_R1A@?0A@EA@CWnd@@8
	DD	FLAT:??_R1A@?0A@EA@CCmdTarget@@8
	DD	FLAT:??_R1A@?0A@EA@CObject@@8
rdata$r	ENDS
;	COMDAT ??_R3CAboutDlg@@8
rdata$r	SEGMENT
??_R3CAboutDlg@@8 DD 00H				; CAboutDlg::`RTTI Class Hierarchy Descriptor'
	DD	00H
	DD	06H
	DD	FLAT:??_R2CAboutDlg@@8
rdata$r	ENDS
;	COMDAT ??_R0?AVCAboutDlg@@@8
data$r	SEGMENT
??_R0?AVCAboutDlg@@@8 DD FLAT:??_7type_info@@6B@	; CAboutDlg `RTTI Type Descriptor'
	DD	00H
	DB	'.?AVCAboutDlg@@', 00H
data$r	ENDS
;	COMDAT ??_R4CAboutDlg@@6B@
rdata$r	SEGMENT
??_R4CAboutDlg@@6B@ DD 00H				; CAboutDlg::`RTTI Complete Object Locator'
	DD	00H
	DD	00H
	DD	FLAT:??_R0?AVCAboutDlg@@@8
	DD	FLAT:??_R3CAboutDlg@@8
rdata$r	ENDS
;	COMDAT ??_R2CDialogEx@@8
rdata$r	SEGMENT
??_R2CDialogEx@@8 DD FLAT:??_R1A@?0A@EA@CDialogEx@@8	; CDialogEx::`RTTI Base Class Array'
	DD	FLAT:??_R1A@?0A@EA@CDialog@@8
	DD	FLAT:??_R1A@?0A@EA@CWnd@@8
	DD	FLAT:??_R1A@?0A@EA@CCmdTarget@@8
	DD	FLAT:??_R1A@?0A@EA@CObject@@8
rdata$r	ENDS
;	COMDAT ??_R3CDialogEx@@8
rdata$r	SEGMENT
??_R3CDialogEx@@8 DD 00H				; CDialogEx::`RTTI Class Hierarchy Descriptor'
	DD	00H
	DD	05H
	DD	FLAT:??_R2CDialogEx@@8
rdata$r	ENDS
;	COMDAT ??_R0?AVCDialogEx@@@8
data$r	SEGMENT
??_R0?AVCDialogEx@@@8 DD FLAT:??_7type_info@@6B@	; CDialogEx `RTTI Type Descriptor'
	DD	00H
	DB	'.?AVCDialogEx@@', 00H
data$r	ENDS
;	COMDAT ??_R1A@?0A@EA@CDialogEx@@8
rdata$r	SEGMENT
??_R1A@?0A@EA@CDialogEx@@8 DD FLAT:??_R0?AVCDialogEx@@@8 ; CDialogEx::`RTTI Base Class Descriptor at (0,-1,0,64)'
	DD	04H
	DD	00H
	DD	0ffffffffH
	DD	00H
	DD	040H
	DD	FLAT:??_R3CDialogEx@@8
rdata$r	ENDS
;	COMDAT ??_R1A@?0A@EA@CLLKDlg@@8
rdata$r	SEGMENT
??_R1A@?0A@EA@CLLKDlg@@8 DD FLAT:??_R0?AVCLLKDlg@@@8	; CLLKDlg::`RTTI Base Class Descriptor at (0,-1,0,64)'
	DD	05H
	DD	00H
	DD	0ffffffffH
	DD	00H
	DD	040H
	DD	FLAT:??_R3CLLKDlg@@8
rdata$r	ENDS
;	COMDAT ??_R2CLLKDlg@@8
rdata$r	SEGMENT
??_R2CLLKDlg@@8 DD FLAT:??_R1A@?0A@EA@CLLKDlg@@8	; CLLKDlg::`RTTI Base Class Array'
	DD	FLAT:??_R1A@?0A@EA@CDialogEx@@8
	DD	FLAT:??_R1A@?0A@EA@CDialog@@8
	DD	FLAT:??_R1A@?0A@EA@CWnd@@8
	DD	FLAT:??_R1A@?0A@EA@CCmdTarget@@8
	DD	FLAT:??_R1A@?0A@EA@CObject@@8
rdata$r	ENDS
;	COMDAT ??_R3CLLKDlg@@8
rdata$r	SEGMENT
??_R3CLLKDlg@@8 DD 00H					; CLLKDlg::`RTTI Class Hierarchy Descriptor'
	DD	00H
	DD	06H
	DD	FLAT:??_R2CLLKDlg@@8
rdata$r	ENDS
;	COMDAT ??_R0?AVCLLKDlg@@@8
data$r	SEGMENT
??_R0?AVCLLKDlg@@@8 DD FLAT:??_7type_info@@6B@		; CLLKDlg `RTTI Type Descriptor'
	DD	00H
	DB	'.?AVCLLKDlg@@', 00H
data$r	ENDS
;	COMDAT ??_R4CLLKDlg@@6B@
rdata$r	SEGMENT
??_R4CLLKDlg@@6B@ DD 00H				; CLLKDlg::`RTTI Complete Object Locator'
	DD	00H
	DD	00H
	DD	FLAT:??_R0?AVCLLKDlg@@@8
	DD	FLAT:??_R3CLLKDlg@@8
rdata$r	ENDS
;	COMDAT ?__LINE__Var@?0??OnBnClickedBtnLevel@CLLKDlg@@QAEXXZ@4JA
_DATA	SEGMENT
?__LINE__Var@?0??OnBnClickedBtnLevel@CLLKDlg@@QAEXXZ@4JA DD 0129H ; `CLLKDlg::OnBnClickedBtnLevel'::`1'::__LINE__Var
_DATA	ENDS
;	COMDAT ?__LINE__Var@?0??OnBnClickedBtnRelax@CLLKDlg@@QAEXXZ@4JA
_DATA	SEGMENT
?__LINE__Var@?0??OnBnClickedBtnRelax@CLLKDlg@@QAEXXZ@4JA DD 0120H ; `CLLKDlg::OnBnClickedBtnRelax'::`1'::__LINE__Var
_DATA	ENDS
;	COMDAT ?__LINE__Var@?0??OnBnClickedBtnBasic@CLLKDlg@@QAEXXZ@4JA
_DATA	SEGMENT
?__LINE__Var@?0??OnBnClickedBtnBasic@CLLKDlg@@QAEXXZ@4JA DD 010eH ; `CLLKDlg::OnBnClickedBtnBasic'::`1'::__LINE__Var
_DATA	ENDS
;	COMDAT ??_C@_1BA@LALLHPFH@xn?$FL?$JO?$IJ?$IB?$JA?$AAQ?zT?$BH?$PP?$BP?$AA?$AA@
CONST	SEGMENT
??_C@_1BA@LALLHPFH@xn?$FL?$JO?$IJ?$IB?$JA?$AAQ?zT?$BH?$PP?$BP?$AA?$AA@ DB 'n'
	DB	'x', 09eH, '[', 081H, 089H, 00H, 090H, 0faH, 'Q', 017H, 'T', 01fH
	DB	0ffH, 00H, 00H				; `string'
CONST	ENDS
;	COMDAT ??_C@_15EGCHAEPE@c?Py?3?$AA?$AA@
CONST	SEGMENT
??_C@_15EGCHAEPE@c?Py?3?$AA?$AA@ DB 0d0H, 'c:y', 00H, 00H ; `string'
CONST	ENDS
;	COMDAT ??_C@_0FA@JCGMDLPD@d?3?2study?2?J?$PN?$LO?$NN?$LN?a?$LJ?$LJ?S?k?K?c?$LH?$KI?W?$NL?$LK?O?J?$LF?Q?i?2@
CONST	SEGMENT
??_C@_0FA@JCGMDLPD@d?3?2study?2?J?$PN?$LO?$NN?$LN?a?$LJ?$LJ?S?k?K?c?$LH?$KI?W?$NL?$LK?O?J?$LF?Q?i?2@ DB 'd'
	DB	':\study\', 0caH, 0fdH, 0beH, 0ddH, 0bdH, 0e1H, 0b9H, 0b9H, 0d3H
	DB	0ebH, 0cbH, 0e3H, 0b7H, 0a8H, 0d7H, 0dbH, 0baH, 0cfH, 0caH, 0b5H
	DB	0d1H, 0e9H, '\', 0c1H, 0acH, 0c1H, 0acH, 0bfH, 0b4H, 0d3H, 0ceH
	DB	0cfH, 0b7H, '\llkpro17.6.18\lianliankan\llkdlg.cpp', 00H ; `string'
CONST	ENDS
;	COMDAT ?__LINE__Var@?0??OnInitDialog@CLLKDlg@@MAEHXZ@4JA
_DATA	SEGMENT
?__LINE__Var@?0??OnInitDialog@CLLKDlg@@MAEHXZ@4JA DD 069H ; `CLLKDlg::OnInitDialog'::`1'::__LINE__Var
_DATA	ENDS
;	COMDAT ??_C@_07JGNKFJJE@CLLKDlg?$AA@
CONST	SEGMENT
??_C@_07JGNKFJJE@CLLKDlg?$AA@ DB 'CLLKDlg', 00H		; `string'
CONST	ENDS
;	COMDAT ??_7CAboutDlg@@6B@
CONST	SEGMENT
??_7CAboutDlg@@6B@ DD FLAT:??_R4CAboutDlg@@6B@		; CAboutDlg::`vftable'
	DD	FLAT:?GetRuntimeClass@CDialogEx@@UBEPAUCRuntimeClass@@XZ
	DD	FLAT:??_ECAboutDlg@@UAEPAXI@Z
	DD	FLAT:?Serialize@CObject@@UAEXAAVCArchive@@@Z
	DD	FLAT:?AssertValid@CDialog@@UBEXXZ
	DD	FLAT:?Dump@CDialog@@UBEXAAVCDumpContext@@@Z
	DD	FLAT:?OnCmdMsg@CDialog@@UAEHIHPAXPAUAFX_CMDHANDLERINFO@@@Z
	DD	FLAT:?OnFinalRelease@CWnd@@UAEXXZ
	DD	FLAT:?IsInvokeAllowed@CCmdTarget@@UAEHJ@Z
	DD	FLAT:?GetDispatchIID@CCmdTarget@@UAEHPAU_GUID@@@Z
	DD	FLAT:?GetTypeInfoCount@CCmdTarget@@UAEIXZ
	DD	FLAT:?GetTypeLibCache@CCmdTarget@@UAEPAVCTypeLibCache@@XZ
	DD	FLAT:?GetTypeLib@CCmdTarget@@UAEJKPAPAUITypeLib@@@Z
	DD	FLAT:?GetMessageMap@CAboutDlg@@MBEPBUAFX_MSGMAP@@XZ
	DD	FLAT:?GetCommandMap@CCmdTarget@@MBEPBUAFX_OLECMDMAP@@XZ
	DD	FLAT:?GetDispatchMap@CCmdTarget@@MBEPBUAFX_DISPMAP@@XZ
	DD	FLAT:?GetConnectionMap@CCmdTarget@@MBEPBUAFX_CONNECTIONMAP@@XZ
	DD	FLAT:?GetInterfaceMap@CWnd@@MBEPBUAFX_INTERFACEMAP@@XZ
	DD	FLAT:?GetEventSinkMap@CCmdTarget@@MBEPBUAFX_EVENTSINKMAP@@XZ
	DD	FLAT:?OnCreateAggregates@CCmdTarget@@UAEHXZ
	DD	FLAT:?GetInterfaceHook@CCmdTarget@@UAEPAUIUnknown@@PBX@Z
	DD	FLAT:?GetExtraConnectionPoints@CCmdTarget@@MAEHPAVCPtrArray@@@Z
	DD	FLAT:?GetConnectionHook@CCmdTarget@@MAEPAUIConnectionPoint@@ABU_GUID@@@Z
	DD	FLAT:?PreSubclassWindow@CWnd@@UAEXXZ
	DD	FLAT:?Create@CWnd@@UAEHPB_W0KABUtagRECT@@PAV1@IPAUCCreateContext@@@Z
	DD	FLAT:?CreateEx@CWnd@@UAEHKPB_W0KABUtagRECT@@PAV1@IPAX@Z
	DD	FLAT:?CreateEx@CWnd@@UAEHKPB_W0KHHHHPAUHWND__@@PAUHMENU__@@PAX@Z
	DD	FLAT:?DestroyWindow@CWnd@@UAEHXZ
	DD	FLAT:?PreCreateWindow@CWnd@@UAEHAAUtagCREATESTRUCTW@@@Z
	DD	FLAT:?CalcWindowRect@CWnd@@UAEXPAUtagRECT@@I@Z
	DD	FLAT:?GetMenu@CWnd@@UBEPAVCMenu@@XZ
	DD	FLAT:?SetMenu@CWnd@@UAEHPAVCMenu@@@Z
	DD	FLAT:?OnToolHitTest@CWnd@@UBEHVCPoint@@PAUtagTOOLINFOW@@@Z
	DD	FLAT:?GetScrollBarCtrl@CWnd@@UBEPAVCScrollBar@@H@Z
	DD	FLAT:?WinHelpW@CWnd@@UAEXKI@Z
	DD	FLAT:?HtmlHelpW@CWnd@@UAEXKI@Z
	DD	FLAT:?WinHelpInternal@CWnd@@UAEXKI@Z
	DD	FLAT:?ContinueModal@CWnd@@UAEHXZ
	DD	FLAT:?EndModalLoop@CWnd@@UAEXH@Z
	DD	FLAT:?OnDrawIconicThumbnailOrLivePreview@CWnd@@UAEXAAVCDC@@VCRect@@VCSize@@HAAH@Z
	DD	FLAT:?EnsureStdObj@CWnd@@UAEJXZ
	DD	FLAT:?get_accParent@CWnd@@UAEJPAPAUIDispatch@@@Z
	DD	FLAT:?get_accChildCount@CWnd@@UAEJPAJ@Z
	DD	FLAT:?get_accChild@CWnd@@UAEJUtagVARIANT@@PAPAUIDispatch@@@Z
	DD	FLAT:?get_accName@CWnd@@UAEJUtagVARIANT@@PAPA_W@Z
	DD	FLAT:?get_accValue@CWnd@@UAEJUtagVARIANT@@PAPA_W@Z
	DD	FLAT:?get_accDescription@CWnd@@UAEJUtagVARIANT@@PAPA_W@Z
	DD	FLAT:?get_accRole@CWnd@@UAEJUtagVARIANT@@PAU2@@Z
	DD	FLAT:?get_accState@CWnd@@UAEJUtagVARIANT@@PAU2@@Z
	DD	FLAT:?get_accHelp@CWnd@@UAEJUtagVARIANT@@PAPA_W@Z
	DD	FLAT:?get_accHelpTopic@CWnd@@UAEJPAPA_WUtagVARIANT@@PAJ@Z
	DD	FLAT:?get_accKeyboardShortcut@CWnd@@UAEJUtagVARIANT@@PAPA_W@Z
	DD	FLAT:?get_accFocus@CWnd@@UAEJPAUtagVARIANT@@@Z
	DD	FLAT:?get_accSelection@CWnd@@UAEJPAUtagVARIANT@@@Z
	DD	FLAT:?get_accDefaultAction@CWnd@@UAEJUtagVARIANT@@PAPA_W@Z
	DD	FLAT:?accSelect@CWnd@@UAEJJUtagVARIANT@@@Z
	DD	FLAT:?accLocation@CWnd@@UAEJPAJ000UtagVARIANT@@@Z
	DD	FLAT:?accNavigate@CWnd@@UAEJJUtagVARIANT@@PAU2@@Z
	DD	FLAT:?accHitTest@CWnd@@UAEJJJPAUtagVARIANT@@@Z
	DD	FLAT:?accDoDefaultAction@CWnd@@UAEJUtagVARIANT@@@Z
	DD	FLAT:?put_accName@CWnd@@UAEJUtagVARIANT@@PA_W@Z
	DD	FLAT:?put_accValue@CWnd@@UAEJUtagVARIANT@@PA_W@Z
	DD	FLAT:?SetProxy@CWnd@@UAEJPAUIAccessibleProxy@@@Z
	DD	FLAT:?CreateAccessibleProxy@CWnd@@UAEJIJPAJ@Z
	DD	FLAT:?OnCommand@CDialogEx@@MAEHIJ@Z
	DD	FLAT:?OnNotify@CWnd@@MAEHIJPAJ@Z
	DD	FLAT:?GetSuperWndProcAddr@CWnd@@MAEPAP6GJPAUHWND__@@IIJ@ZXZ
	DD	FLAT:?DoDataExchange@CAboutDlg@@MAEXPAVCDataExchange@@@Z
	DD	FLAT:?BeginModalState@CWnd@@UAEXXZ
	DD	FLAT:?EndModalState@CWnd@@UAEXXZ
	DD	FLAT:?PreTranslateMessage@CDialogEx@@UAEHPAUtagMSG@@@Z
	DD	FLAT:?OnAmbientProperty@CWnd@@UAEHPAVCOleControlSite@@JPAUtagVARIANT@@@Z
	DD	FLAT:?WindowProc@CWnd@@MAEJIIJ@Z
	DD	FLAT:?OnWndMsg@CWnd@@MAEHIIJPAJ@Z
	DD	FLAT:?DefWindowProcW@CWnd@@MAEJIIJ@Z
	DD	FLAT:?PostNcDestroy@CWnd@@MAEXXZ
	DD	FLAT:?OnChildNotify@CWnd@@MAEHIIJPAJ@Z
	DD	FLAT:?OnTouchInputs@CWnd@@MAEHIPAUtagTOUCHINPUT@@@Z
	DD	FLAT:?OnTouchInput@CWnd@@MAEHVCPoint@@HHPAUtagTOUCHINPUT@@@Z
	DD	FLAT:?GetGestureStatus@CWnd@@MAEKVCPoint@@@Z
	DD	FLAT:?OnGestureZoom@CWnd@@MAEHVCPoint@@J@Z
	DD	FLAT:?OnGesturePan@CWnd@@MAEHVCPoint@@0@Z
	DD	FLAT:?OnGestureRotate@CWnd@@MAEHVCPoint@@N@Z
	DD	FLAT:?OnGestureTwoFingerTap@CWnd@@MAEHVCPoint@@@Z
	DD	FLAT:?OnGesturePressAndTap@CWnd@@MAEHVCPoint@@J@Z
	DD	FLAT:?ResizeDynamicLayout@CWnd@@MAEXXZ
	DD	FLAT:?CheckAutoCenter@CDialog@@UAEHXZ
	DD	FLAT:?IsFrameWnd@CWnd@@UBEHXZ
	DD	FLAT:?CreateControlContainer@CWnd@@MAEHPAPAVCOleControlContainer@@@Z
	DD	FLAT:?CreateControlSite@CWnd@@MAEHPAVCOleControlContainer@@PAPAVCOleControlSite@@IABU_GUID@@@Z
	DD	FLAT:?SetOccDialogInfo@CDialog@@MAEHPAU_AFX_OCC_DIALOG_INFO@@@Z
	DD	FLAT:?GetOccDialogInfo@CDialog@@MAEPAU_AFX_OCC_DIALOG_INFO@@XZ
	DD	FLAT:?Create@CDialog@@UAEHIPAVCWnd@@@Z
	DD	FLAT:?Create@CDialog@@UAEHPB_WPAVCWnd@@@Z
	DD	FLAT:?CreateIndirect@CDialog@@UAEHPAXPAVCWnd@@@Z
	DD	FLAT:?CreateIndirect@CDialog@@UAEHPBUDLGTEMPLATE@@PAVCWnd@@PAX@Z
	DD	FLAT:?DoModal@CDialog@@UAEHXZ
	DD	FLAT:?OnInitDialog@CDialog@@UAEHXZ
	DD	FLAT:?OnSetFont@CDialog@@UAEXPAVCFont@@@Z
	DD	FLAT:?OnOK@CDialog@@MAEXXZ
	DD	FLAT:?OnCancel@CDialog@@MAEXXZ
	DD	FLAT:?PreInitDialog@CDialog@@MAEXXZ
CONST	ENDS
;	COMDAT ??_7CLLKDlg@@6B@
CONST	SEGMENT
??_7CLLKDlg@@6B@ DD FLAT:??_R4CLLKDlg@@6B@		; CLLKDlg::`vftable'
	DD	FLAT:?GetRuntimeClass@CLLKDlg@@UBEPAUCRuntimeClass@@XZ
	DD	FLAT:??_ECLLKDlg@@UAEPAXI@Z
	DD	FLAT:?Serialize@CObject@@UAEXAAVCArchive@@@Z
	DD	FLAT:?AssertValid@CDialog@@UBEXXZ
	DD	FLAT:?Dump@CDialog@@UBEXAAVCDumpContext@@@Z
	DD	FLAT:?OnCmdMsg@CDialog@@UAEHIHPAXPAUAFX_CMDHANDLERINFO@@@Z
	DD	FLAT:?OnFinalRelease@CWnd@@UAEXXZ
	DD	FLAT:?IsInvokeAllowed@CCmdTarget@@UAEHJ@Z
	DD	FLAT:?GetDispatchIID@CCmdTarget@@UAEHPAU_GUID@@@Z
	DD	FLAT:?GetTypeInfoCount@CCmdTarget@@UAEIXZ
	DD	FLAT:?GetTypeLibCache@CCmdTarget@@UAEPAVCTypeLibCache@@XZ
	DD	FLAT:?GetTypeLib@CCmdTarget@@UAEJKPAPAUITypeLib@@@Z
	DD	FLAT:?GetMessageMap@CLLKDlg@@MBEPBUAFX_MSGMAP@@XZ
	DD	FLAT:?GetCommandMap@CCmdTarget@@MBEPBUAFX_OLECMDMAP@@XZ
	DD	FLAT:?GetDispatchMap@CCmdTarget@@MBEPBUAFX_DISPMAP@@XZ
	DD	FLAT:?GetConnectionMap@CCmdTarget@@MBEPBUAFX_CONNECTIONMAP@@XZ
	DD	FLAT:?GetInterfaceMap@CWnd@@MBEPBUAFX_INTERFACEMAP@@XZ
	DD	FLAT:?GetEventSinkMap@CCmdTarget@@MBEPBUAFX_EVENTSINKMAP@@XZ
	DD	FLAT:?OnCreateAggregates@CCmdTarget@@UAEHXZ
	DD	FLAT:?GetInterfaceHook@CCmdTarget@@UAEPAUIUnknown@@PBX@Z
	DD	FLAT:?GetExtraConnectionPoints@CCmdTarget@@MAEHPAVCPtrArray@@@Z
	DD	FLAT:?GetConnectionHook@CCmdTarget@@MAEPAUIConnectionPoint@@ABU_GUID@@@Z
	DD	FLAT:?PreSubclassWindow@CWnd@@UAEXXZ
	DD	FLAT:?Create@CWnd@@UAEHPB_W0KABUtagRECT@@PAV1@IPAUCCreateContext@@@Z
	DD	FLAT:?CreateEx@CWnd@@UAEHKPB_W0KABUtagRECT@@PAV1@IPAX@Z
	DD	FLAT:?CreateEx@CWnd@@UAEHKPB_W0KHHHHPAUHWND__@@PAUHMENU__@@PAX@Z
	DD	FLAT:?DestroyWindow@CWnd@@UAEHXZ
	DD	FLAT:?PreCreateWindow@CWnd@@UAEHAAUtagCREATESTRUCTW@@@Z
	DD	FLAT:?CalcWindowRect@CWnd@@UAEXPAUtagRECT@@I@Z
	DD	FLAT:?GetMenu@CWnd@@UBEPAVCMenu@@XZ
	DD	FLAT:?SetMenu@CWnd@@UAEHPAVCMenu@@@Z
	DD	FLAT:?OnToolHitTest@CWnd@@UBEHVCPoint@@PAUtagTOOLINFOW@@@Z
	DD	FLAT:?GetScrollBarCtrl@CWnd@@UBEPAVCScrollBar@@H@Z
	DD	FLAT:?WinHelpW@CWnd@@UAEXKI@Z
	DD	FLAT:?HtmlHelpW@CWnd@@UAEXKI@Z
	DD	FLAT:?WinHelpInternal@CWnd@@UAEXKI@Z
	DD	FLAT:?ContinueModal@CWnd@@UAEHXZ
	DD	FLAT:?EndModalLoop@CWnd@@UAEXH@Z
	DD	FLAT:?OnDrawIconicThumbnailOrLivePreview@CWnd@@UAEXAAVCDC@@VCRect@@VCSize@@HAAH@Z
	DD	FLAT:?EnsureStdObj@CWnd@@UAEJXZ
	DD	FLAT:?get_accParent@CWnd@@UAEJPAPAUIDispatch@@@Z
	DD	FLAT:?get_accChildCount@CWnd@@UAEJPAJ@Z
	DD	FLAT:?get_accChild@CWnd@@UAEJUtagVARIANT@@PAPAUIDispatch@@@Z
	DD	FLAT:?get_accName@CWnd@@UAEJUtagVARIANT@@PAPA_W@Z
	DD	FLAT:?get_accValue@CWnd@@UAEJUtagVARIANT@@PAPA_W@Z
	DD	FLAT:?get_accDescription@CWnd@@UAEJUtagVARIANT@@PAPA_W@Z
	DD	FLAT:?get_accRole@CWnd@@UAEJUtagVARIANT@@PAU2@@Z
	DD	FLAT:?get_accState@CWnd@@UAEJUtagVARIANT@@PAU2@@Z
	DD	FLAT:?get_accHelp@CWnd@@UAEJUtagVARIANT@@PAPA_W@Z
	DD	FLAT:?get_accHelpTopic@CWnd@@UAEJPAPA_WUtagVARIANT@@PAJ@Z
	DD	FLAT:?get_accKeyboardShortcut@CWnd@@UAEJUtagVARIANT@@PAPA_W@Z
	DD	FLAT:?get_accFocus@CWnd@@UAEJPAUtagVARIANT@@@Z
	DD	FLAT:?get_accSelection@CWnd@@UAEJPAUtagVARIANT@@@Z
	DD	FLAT:?get_accDefaultAction@CWnd@@UAEJUtagVARIANT@@PAPA_W@Z
	DD	FLAT:?accSelect@CWnd@@UAEJJUtagVARIANT@@@Z
	DD	FLAT:?accLocation@CWnd@@UAEJPAJ000UtagVARIANT@@@Z
	DD	FLAT:?accNavigate@CWnd@@UAEJJUtagVARIANT@@PAU2@@Z
	DD	FLAT:?accHitTest@CWnd@@UAEJJJPAUtagVARIANT@@@Z
	DD	FLAT:?accDoDefaultAction@CWnd@@UAEJUtagVARIANT@@@Z
	DD	FLAT:?put_accName@CWnd@@UAEJUtagVARIANT@@PA_W@Z
	DD	FLAT:?put_accValue@CWnd@@UAEJUtagVARIANT@@PA_W@Z
	DD	FLAT:?SetProxy@CWnd@@UAEJPAUIAccessibleProxy@@@Z
	DD	FLAT:?CreateAccessibleProxy@CWnd@@UAEJIJPAJ@Z
	DD	FLAT:?OnCommand@CDialogEx@@MAEHIJ@Z
	DD	FLAT:?OnNotify@CWnd@@MAEHIJPAJ@Z
	DD	FLAT:?GetSuperWndProcAddr@CWnd@@MAEPAP6GJPAUHWND__@@IIJ@ZXZ
	DD	FLAT:?DoDataExchange@CLLKDlg@@MAEXPAVCDataExchange@@@Z
	DD	FLAT:?BeginModalState@CWnd@@UAEXXZ
	DD	FLAT:?EndModalState@CWnd@@UAEXXZ
	DD	FLAT:?PreTranslateMessage@CDialogEx@@UAEHPAUtagMSG@@@Z
	DD	FLAT:?OnAmbientProperty@CWnd@@UAEHPAVCOleControlSite@@JPAUtagVARIANT@@@Z
	DD	FLAT:?WindowProc@CWnd@@MAEJIIJ@Z
	DD	FLAT:?OnWndMsg@CWnd@@MAEHIIJPAJ@Z
	DD	FLAT:?DefWindowProcW@CWnd@@MAEJIIJ@Z
	DD	FLAT:?PostNcDestroy@CWnd@@MAEXXZ
	DD	FLAT:?OnChildNotify@CWnd@@MAEHIIJPAJ@Z
	DD	FLAT:?OnTouchInputs@CWnd@@MAEHIPAUtagTOUCHINPUT@@@Z
	DD	FLAT:?OnTouchInput@CWnd@@MAEHVCPoint@@HHPAUtagTOUCHINPUT@@@Z
	DD	FLAT:?GetGestureStatus@CWnd@@MAEKVCPoint@@@Z
	DD	FLAT:?OnGestureZoom@CWnd@@MAEHVCPoint@@J@Z
	DD	FLAT:?OnGesturePan@CWnd@@MAEHVCPoint@@0@Z
	DD	FLAT:?OnGestureRotate@CWnd@@MAEHVCPoint@@N@Z
	DD	FLAT:?OnGestureTwoFingerTap@CWnd@@MAEHVCPoint@@@Z
	DD	FLAT:?OnGesturePressAndTap@CWnd@@MAEHVCPoint@@J@Z
	DD	FLAT:?ResizeDynamicLayout@CWnd@@MAEXXZ
	DD	FLAT:?CheckAutoCenter@CDialog@@UAEHXZ
	DD	FLAT:?IsFrameWnd@CWnd@@UBEHXZ
	DD	FLAT:?CreateControlContainer@CWnd@@MAEHPAPAVCOleControlContainer@@@Z
	DD	FLAT:?CreateControlSite@CWnd@@MAEHPAVCOleControlContainer@@PAPAVCOleControlSite@@IABU_GUID@@@Z
	DD	FLAT:?SetOccDialogInfo@CDialog@@MAEHPAU_AFX_OCC_DIALOG_INFO@@@Z
	DD	FLAT:?GetOccDialogInfo@CDialog@@MAEPAU_AFX_OCC_DIALOG_INFO@@XZ
	DD	FLAT:?Create@CDialog@@UAEHIPAVCWnd@@@Z
	DD	FLAT:?Create@CDialog@@UAEHPB_WPAVCWnd@@@Z
	DD	FLAT:?CreateIndirect@CDialog@@UAEHPAXPAVCWnd@@@Z
	DD	FLAT:?CreateIndirect@CDialog@@UAEHPBUDLGTEMPLATE@@PAVCWnd@@PAX@Z
	DD	FLAT:?DoModal@CDialog@@UAEHXZ
	DD	FLAT:?OnInitDialog@CLLKDlg@@MAEHXZ
	DD	FLAT:?OnSetFont@CDialog@@UAEXPAVCFont@@@Z
	DD	FLAT:?OnOK@CDialog@@MAEXXZ
	DD	FLAT:?OnCancel@CLLKDlg@@MAEXXZ
	DD	FLAT:?PreInitDialog@CDialog@@MAEXXZ
CONST	ENDS
;	COMDAT ?classCLLKDlg@CLLKDlg@@2UCRuntimeClass@@B
CONST	SEGMENT
?classCLLKDlg@CLLKDlg@@2UCRuntimeClass@@B DD FLAT:??_C@_07JGNKFJJE@CLLKDlg?$AA@ ; CLLKDlg::classCLLKDlg
	DD	0f0H
	DD	0ffffH
	DD	00H
	DD	FLAT:?_GetBaseClass@CLLKDlg@@KGPAUCRuntimeClass@@XZ
	DD	00H
	DD	00H
CONST	ENDS
;	COMDAT ??_R2CCmdTarget@@8
rdata$r	SEGMENT
??_R2CCmdTarget@@8 DD FLAT:??_R1A@?0A@EA@CCmdTarget@@8	; CCmdTarget::`RTTI Base Class Array'
	DD	FLAT:??_R1A@?0A@EA@CObject@@8
rdata$r	ENDS
;	COMDAT ??_R3CCmdTarget@@8
rdata$r	SEGMENT
??_R3CCmdTarget@@8 DD 00H				; CCmdTarget::`RTTI Class Hierarchy Descriptor'
	DD	00H
	DD	02H
	DD	FLAT:??_R2CCmdTarget@@8
rdata$r	ENDS
;	COMDAT ??_R0?AVCCmdTarget@@@8
data$r	SEGMENT
??_R0?AVCCmdTarget@@@8 DD FLAT:??_7type_info@@6B@	; CCmdTarget `RTTI Type Descriptor'
	DD	00H
	DB	'.?AVCCmdTarget@@', 00H
data$r	ENDS
;	COMDAT ??_R1A@?0A@EA@CCmdTarget@@8
rdata$r	SEGMENT
??_R1A@?0A@EA@CCmdTarget@@8 DD FLAT:??_R0?AVCCmdTarget@@@8 ; CCmdTarget::`RTTI Base Class Descriptor at (0,-1,0,64)'
	DD	01H
	DD	00H
	DD	0ffffffffH
	DD	00H
	DD	040H
	DD	FLAT:??_R3CCmdTarget@@8
rdata$r	ENDS
;	COMDAT ??_R2CWnd@@8
rdata$r	SEGMENT
??_R2CWnd@@8 DD	FLAT:??_R1A@?0A@EA@CWnd@@8		; CWnd::`RTTI Base Class Array'
	DD	FLAT:??_R1A@?0A@EA@CCmdTarget@@8
	DD	FLAT:??_R1A@?0A@EA@CObject@@8
rdata$r	ENDS
;	COMDAT ??_R3CWnd@@8
rdata$r	SEGMENT
??_R3CWnd@@8 DD	00H					; CWnd::`RTTI Class Hierarchy Descriptor'
	DD	00H
	DD	03H
	DD	FLAT:??_R2CWnd@@8
rdata$r	ENDS
;	COMDAT ??_R0?AVCWnd@@@8
data$r	SEGMENT
??_R0?AVCWnd@@@8 DD FLAT:??_7type_info@@6B@		; CWnd `RTTI Type Descriptor'
	DD	00H
	DB	'.?AVCWnd@@', 00H
data$r	ENDS
;	COMDAT ??_R1A@?0A@EA@CWnd@@8
rdata$r	SEGMENT
??_R1A@?0A@EA@CWnd@@8 DD FLAT:??_R0?AVCWnd@@@8		; CWnd::`RTTI Base Class Descriptor at (0,-1,0,64)'
	DD	02H
	DD	00H
	DD	0ffffffffH
	DD	00H
	DD	040H
	DD	FLAT:??_R3CWnd@@8
rdata$r	ENDS
;	COMDAT ??_R2CDialog@@8
rdata$r	SEGMENT
??_R2CDialog@@8 DD FLAT:??_R1A@?0A@EA@CDialog@@8	; CDialog::`RTTI Base Class Array'
	DD	FLAT:??_R1A@?0A@EA@CWnd@@8
	DD	FLAT:??_R1A@?0A@EA@CCmdTarget@@8
	DD	FLAT:??_R1A@?0A@EA@CObject@@8
rdata$r	ENDS
;	COMDAT ??_R3CDialog@@8
rdata$r	SEGMENT
??_R3CDialog@@8 DD 00H					; CDialog::`RTTI Class Hierarchy Descriptor'
	DD	00H
	DD	04H
	DD	FLAT:??_R2CDialog@@8
rdata$r	ENDS
;	COMDAT ??_R0?AVCDialog@@@8
data$r	SEGMENT
??_R0?AVCDialog@@@8 DD FLAT:??_7type_info@@6B@		; CDialog `RTTI Type Descriptor'
	DD	00H
	DB	'.?AVCDialog@@', 00H
data$r	ENDS
;	COMDAT ??_R1A@?0A@EA@CDialog@@8
rdata$r	SEGMENT
??_R1A@?0A@EA@CDialog@@8 DD FLAT:??_R0?AVCDialog@@@8	; CDialog::`RTTI Base Class Descriptor at (0,-1,0,64)'
	DD	03H
	DD	00H
	DD	0ffffffffH
	DD	00H
	DD	040H
	DD	FLAT:??_R3CDialog@@8
rdata$r	ENDS
;	COMDAT ??_R2CObject@@8
rdata$r	SEGMENT
??_R2CObject@@8 DD FLAT:??_R1A@?0A@EA@CObject@@8	; CObject::`RTTI Base Class Array'
rdata$r	ENDS
;	COMDAT ??_R3CObject@@8
rdata$r	SEGMENT
??_R3CObject@@8 DD 00H					; CObject::`RTTI Class Hierarchy Descriptor'
	DD	00H
	DD	01H
	DD	FLAT:??_R2CObject@@8
rdata$r	ENDS
;	COMDAT ??_R0?AVCObject@@@8
data$r	SEGMENT
??_R0?AVCObject@@@8 DD FLAT:??_7type_info@@6B@		; CObject `RTTI Type Descriptor'
	DD	00H
	DB	'.?AVCObject@@', 00H
data$r	ENDS
;	COMDAT ??_R1A@?0A@EA@CObject@@8
rdata$r	SEGMENT
??_R1A@?0A@EA@CObject@@8 DD FLAT:??_R0?AVCObject@@@8	; CObject::`RTTI Base Class Descriptor at (0,-1,0,64)'
	DD	00H
	DD	00H
	DD	0ffffffffH
	DD	00H
	DD	040H
	DD	FLAT:??_R3CObject@@8
rdata$r	ENDS
;	COMDAT xdata$x
xdata$x	SEGMENT
__unwindtable$?InitBackground@CLLKDlg@@AAEXXZ DD 0ffffffffH
	DD	FLAT:__unwindfunclet$?InitBackground@CLLKDlg@@AAEXXZ$0
	DD	00H
	DD	FLAT:__unwindfunclet$?InitBackground@CLLKDlg@@AAEXXZ$1
__ehfuncinfo$?InitBackground@CLLKDlg@@AAEXXZ DD 019930522H
	DD	02H
	DD	FLAT:__unwindtable$?InitBackground@CLLKDlg@@AAEXXZ
	DD	2 DUP(00H)
	DD	2 DUP(00H)
	DD	00H
	DD	01H
xdata$x	ENDS
;	COMDAT xdata$x
xdata$x	SEGMENT
__unwindtable$?OnBnClickedBtnLevel@CLLKDlg@@QAEXXZ DD 0ffffffffH
	DD	FLAT:__unwindfunclet$?OnBnClickedBtnLevel@CLLKDlg@@QAEXXZ$0
__ehfuncinfo$?OnBnClickedBtnLevel@CLLKDlg@@QAEXXZ DD 019930522H
	DD	01H
	DD	FLAT:__unwindtable$?OnBnClickedBtnLevel@CLLKDlg@@QAEXXZ
	DD	2 DUP(00H)
	DD	2 DUP(00H)
	DD	00H
	DD	01H
xdata$x	ENDS
;	COMDAT xdata$x
xdata$x	SEGMENT
__unwindtable$?OnBnClickedBtnRelax@CLLKDlg@@QAEXXZ DD 0ffffffffH
	DD	FLAT:__unwindfunclet$?OnBnClickedBtnRelax@CLLKDlg@@QAEXXZ$0
__ehfuncinfo$?OnBnClickedBtnRelax@CLLKDlg@@QAEXXZ DD 019930522H
	DD	01H
	DD	FLAT:__unwindtable$?OnBnClickedBtnRelax@CLLKDlg@@QAEXXZ
	DD	2 DUP(00H)
	DD	2 DUP(00H)
	DD	00H
	DD	01H
xdata$x	ENDS
;	COMDAT xdata$x
xdata$x	SEGMENT
__unwindtable$?OnBnClickedBtnHelp@CLLKDlg@@QAEXXZ DD 0ffffffffH
	DD	FLAT:__unwindfunclet$?OnBnClickedBtnHelp@CLLKDlg@@QAEXXZ$0
__ehfuncinfo$?OnBnClickedBtnHelp@CLLKDlg@@QAEXXZ DD 019930522H
	DD	01H
	DD	FLAT:__unwindtable$?OnBnClickedBtnHelp@CLLKDlg@@QAEXXZ
	DD	2 DUP(00H)
	DD	2 DUP(00H)
	DD	00H
	DD	01H
xdata$x	ENDS
;	COMDAT xdata$x
xdata$x	SEGMENT
__unwindtable$?OnBnClickedBtnBasic@CLLKDlg@@QAEXXZ DD 0ffffffffH
	DD	FLAT:__unwindfunclet$?OnBnClickedBtnBasic@CLLKDlg@@QAEXXZ$0
__ehfuncinfo$?OnBnClickedBtnBasic@CLLKDlg@@QAEXXZ DD 019930522H
	DD	01H
	DD	FLAT:__unwindtable$?OnBnClickedBtnBasic@CLLKDlg@@QAEXXZ
	DD	2 DUP(00H)
	DD	2 DUP(00H)
	DD	00H
	DD	01H
xdata$x	ENDS
;	COMDAT xdata$x
xdata$x	SEGMENT
__unwindtable$?OnPaint@CLLKDlg@@IAEXXZ DD 0ffffffffH
	DD	FLAT:__unwindfunclet$?OnPaint@CLLKDlg@@IAEXXZ$0
__ehfuncinfo$?OnPaint@CLLKDlg@@IAEXXZ DD 019930522H
	DD	01H
	DD	FLAT:__unwindtable$?OnPaint@CLLKDlg@@IAEXXZ
	DD	2 DUP(00H)
	DD	2 DUP(00H)
	DD	00H
	DD	01H
xdata$x	ENDS
;	COMDAT xdata$x
xdata$x	SEGMENT
__unwindtable$?OnSysCommand@CLLKDlg@@IAEXIJ@Z DD 0ffffffffH
	DD	FLAT:__unwindfunclet$?OnSysCommand@CLLKDlg@@IAEXIJ@Z$0
__ehfuncinfo$?OnSysCommand@CLLKDlg@@IAEXIJ@Z DD 019930522H
	DD	01H
	DD	FLAT:__unwindtable$?OnSysCommand@CLLKDlg@@IAEXIJ@Z
	DD	2 DUP(00H)
	DD	2 DUP(00H)
	DD	00H
	DD	01H
xdata$x	ENDS
;	COMDAT xdata$x
xdata$x	SEGMENT
__unwindtable$?OnInitDialog@CLLKDlg@@MAEHXZ DD 0ffffffffH
	DD	FLAT:__unwindfunclet$?OnInitDialog@CLLKDlg@@MAEHXZ$0
__ehfuncinfo$?OnInitDialog@CLLKDlg@@MAEHXZ DD 019930522H
	DD	01H
	DD	FLAT:__unwindtable$?OnInitDialog@CLLKDlg@@MAEHXZ
	DD	2 DUP(00H)
	DD	2 DUP(00H)
	DD	00H
	DD	01H
xdata$x	ENDS
;	COMDAT xdata$x
xdata$x	SEGMENT
__unwindtable$??0CLLKDlg@@QAE@PAVCWnd@@@Z DD 0ffffffffH
	DD	FLAT:__unwindfunclet$??0CLLKDlg@@QAE@PAVCWnd@@@Z$0
	DD	00H
	DD	FLAT:__unwindfunclet$??0CLLKDlg@@QAE@PAVCWnd@@@Z$1
__ehfuncinfo$??0CLLKDlg@@QAE@PAVCWnd@@@Z DD 019930522H
	DD	02H
	DD	FLAT:__unwindtable$??0CLLKDlg@@QAE@PAVCWnd@@@Z
	DD	2 DUP(00H)
	DD	2 DUP(00H)
	DD	00H
	DD	01H
xdata$x	ENDS
; Function compile flags: /Ogtp
;	COMDAT ??_GCAboutDlg@@UAEPAXI@Z
_TEXT	SEGMENT
___flags$ = 8						; size = 4
??_GCAboutDlg@@UAEPAXI@Z PROC				; CAboutDlg::`scalar deleting destructor', COMDAT
; _this$ = ecx
  00000	55		 push	 ebp
  00001	8b ec		 mov	 ebp, esp
  00003	56		 push	 esi
  00004	8b f1		 mov	 esi, ecx
  00006	8d 8e c0 00 00
	00		 lea	 ecx, DWORD PTR [esi+192]
  0000c	e8 00 00 00 00	 call	 ??1CDialogImpl@@MAE@XZ	; CDialogImpl::~CDialogImpl
  00011	8d 8e b4 00 00
	00		 lea	 ecx, DWORD PTR [esi+180]
  00017	e8 00 00 00 00	 call	 ??1CBrush@@UAE@XZ	; CBrush::~CBrush
  0001c	8b ce		 mov	 ecx, esi
  0001e	e8 00 00 00 00	 call	 ??1CDialog@@UAE@XZ	; CDialog::~CDialog
  00023	8b 45 08	 mov	 eax, DWORD PTR ___flags$[ebp]
  00026	a8 01		 test	 al, 1
  00028	74 1f		 je	 SHORT $LN13@scalar
  0002a	a8 04		 test	 al, 4
  0002c	75 0d		 jne	 SHORT $LN3@scalar
  0002e	56		 push	 esi
  0002f	e8 00 00 00 00	 call	 ??3CObject@@SGXPAX@Z	; CObject::operator delete
  00034	8b c6		 mov	 eax, esi
  00036	5e		 pop	 esi
  00037	5d		 pop	 ebp
  00038	c2 04 00	 ret	 4
$LN3@scalar:
  0003b	68 d0 00 00 00	 push	 208			; 000000d0H
  00040	56		 push	 esi
  00041	e8 00 00 00 00	 call	 ?__global_delete@@YAXPAXI@Z ; __global_delete
  00046	83 c4 08	 add	 esp, 8
$LN13@scalar:
  00049	8b c6		 mov	 eax, esi
  0004b	5e		 pop	 esi
  0004c	5d		 pop	 ebp
  0004d	c2 04 00	 ret	 4
??_GCAboutDlg@@UAEPAXI@Z ENDP				; CAboutDlg::`scalar deleting destructor'
_TEXT	ENDS
; Function compile flags: /Ogtp
;	COMDAT ?__autoclassinit2@CAboutDlg@@QAEXI@Z
_TEXT	SEGMENT
_classSize$ = 8						; size = 4
?__autoclassinit2@CAboutDlg@@QAEXI@Z PROC		; CAboutDlg::__autoclassinit2, COMDAT
; _this$ = ecx
  00000	55		 push	 ebp
  00001	8b ec		 mov	 ebp, esp
  00003	ff 75 08	 push	 DWORD PTR _classSize$[ebp]
  00006	6a 00		 push	 0
  00008	51		 push	 ecx
  00009	e8 00 00 00 00	 call	 _memset
  0000e	83 c4 0c	 add	 esp, 12			; 0000000cH
  00011	5d		 pop	 ebp
  00012	c2 04 00	 ret	 4
?__autoclassinit2@CAboutDlg@@QAEXI@Z ENDP		; CAboutDlg::__autoclassinit2
_TEXT	ENDS
; Function compile flags: /Ogtp
;	COMDAT ??1CAboutDlg@@UAE@XZ
_TEXT	SEGMENT
??1CAboutDlg@@UAE@XZ PROC				; CAboutDlg::~CAboutDlg, COMDAT
; _this$ = ecx
  00000	56		 push	 esi
  00001	8b f1		 mov	 esi, ecx
  00003	8d 8e c0 00 00
	00		 lea	 ecx, DWORD PTR [esi+192]
  00009	e8 00 00 00 00	 call	 ??1CDialogImpl@@MAE@XZ	; CDialogImpl::~CDialogImpl
  0000e	8d 8e b4 00 00
	00		 lea	 ecx, DWORD PTR [esi+180]
  00014	e8 00 00 00 00	 call	 ??1CBrush@@UAE@XZ	; CBrush::~CBrush
  00019	8b ce		 mov	 ecx, esi
  0001b	5e		 pop	 esi
  0001c	e9 00 00 00 00	 jmp	 ??1CDialog@@UAE@XZ	; CDialog::~CDialog
??1CAboutDlg@@UAE@XZ ENDP				; CAboutDlg::~CAboutDlg
_TEXT	ENDS
; Function compile flags: /Ogtp
; File d:\study\数据结构与算法综合实验\连连看游戏\llkpro17.6.18\lianliankan\llkdlg.cpp
;	COMDAT ?GetMessageMap@CAboutDlg@@MBEPBUAFX_MSGMAP@@XZ
_TEXT	SEGMENT
?GetMessageMap@CAboutDlg@@MBEPBUAFX_MSGMAP@@XZ PROC	; CAboutDlg::GetMessageMap, COMDAT
; _this$ = ecx

; 51   : BEGIN_MESSAGE_MAP(CAboutDlg, CDialogEx)

  00000	b8 00 00 00 00	 mov	 eax, OFFSET ?messageMap@?1??GetThisMessageMap@CAboutDlg@@KGPBUAFX_MSGMAP@@XZ@4U3@B
  00005	c3		 ret	 0
?GetMessageMap@CAboutDlg@@MBEPBUAFX_MSGMAP@@XZ ENDP	; CAboutDlg::GetMessageMap
_TEXT	ENDS
; Function compile flags: /Ogtp
; File d:\study\数据结构与算法综合实验\连连看游戏\llkpro17.6.18\lianliankan\llkdlg.cpp
;	COMDAT ?GetThisMessageMap@CAboutDlg@@KGPBUAFX_MSGMAP@@XZ
_TEXT	SEGMENT
?GetThisMessageMap@CAboutDlg@@KGPBUAFX_MSGMAP@@XZ PROC	; CAboutDlg::GetThisMessageMap, COMDAT

; 52   : END_MESSAGE_MAP()

  00000	b8 00 00 00 00	 mov	 eax, OFFSET ?messageMap@?1??GetThisMessageMap@CAboutDlg@@KGPBUAFX_MSGMAP@@XZ@4U3@B
  00005	c3		 ret	 0
?GetThisMessageMap@CAboutDlg@@KGPBUAFX_MSGMAP@@XZ ENDP	; CAboutDlg::GetThisMessageMap
_TEXT	ENDS
; Function compile flags: /Ogtp
; File d:\study\数据结构与算法综合实验\连连看游戏\llkpro17.6.18\lianliankan\llkdlg.cpp
;	COMDAT ?DoDataExchange@CAboutDlg@@MAEXPAVCDataExchange@@@Z
_TEXT	SEGMENT
_pDX$ = 8						; size = 4
?DoDataExchange@CAboutDlg@@MAEXPAVCDataExchange@@@Z PROC ; CAboutDlg::DoDataExchange, COMDAT
; _this$ = ecx

; 47   : {

  00000	55		 push	 ebp
  00001	8b ec		 mov	 ebp, esp

; 49   : }

  00003	5d		 pop	 ebp

; 48   : 	CDialogEx::DoDataExchange(pDX);

  00004	e9 00 00 00 00	 jmp	 ?DoDataExchange@CWnd@@MAEXPAVCDataExchange@@@Z ; CWnd::DoDataExchange
?DoDataExchange@CAboutDlg@@MAEXPAVCDataExchange@@@Z ENDP ; CAboutDlg::DoDataExchange
_TEXT	ENDS
; Function compile flags: /Ogtp
; File d:\study\数据结构与算法综合实验\连连看游戏\llkpro17.6.18\lianliankan\llkdlg.cpp
;	COMDAT ??0CAboutDlg@@QAE@XZ
_TEXT	SEGMENT
_this$ = -4						; size = 4
??0CAboutDlg@@QAE@XZ PROC				; CAboutDlg::CAboutDlg, COMDAT
; _this$ = ecx

; 43   : {

  00000	55		 push	 ebp
  00001	8b ec		 mov	 ebp, esp
  00003	51		 push	 ecx
  00004	56		 push	 esi

; 42   : CAboutDlg::CAboutDlg() : CDialogEx(IDD_ABOUTBOX)

  00005	6a 00		 push	 0

; 43   : {

  00007	8b f1		 mov	 esi, ecx
  00009	6a 64		 push	 100			; 00000064H
  0000b	89 75 fc	 mov	 DWORD PTR _this$[ebp], esi
  0000e	e8 00 00 00 00	 call	 ??0CDialogEx@@QAE@IPAVCWnd@@@Z ; CDialogEx::CDialogEx
  00013	c7 06 00 00 00
	00		 mov	 DWORD PTR [esi], OFFSET ??_7CAboutDlg@@6B@

; 44   : }

  00019	8b c6		 mov	 eax, esi
  0001b	5e		 pop	 esi
  0001c	8b e5		 mov	 esp, ebp
  0001e	5d		 pop	 ebp
  0001f	c3		 ret	 0
??0CAboutDlg@@QAE@XZ ENDP				; CAboutDlg::CAboutDlg
_TEXT	ENDS
; Function compile flags: /Ogtp
; File d:\study\数据结构与算法综合实验\连连看游戏\llkpro17.6.18\lianliankan\llkdlg.cpp
;	COMDAT ??_GCLLKDlg@@UAEPAXI@Z
_TEXT	SEGMENT
___flags$ = 8						; size = 4
??_GCLLKDlg@@UAEPAXI@Z PROC				; CLLKDlg::`scalar deleting destructor', COMDAT
; _this$ = ecx
  00000	55		 push	 ebp
  00001	8b ec		 mov	 ebp, esp
  00003	56		 push	 esi
  00004	8b f1		 mov	 esi, ecx

; 72   : 	if (m_pAutoProxy != NULL)

  00006	8b 86 d0 00 00
	00		 mov	 eax, DWORD PTR [esi+208]
  0000c	c7 06 00 00 00
	00		 mov	 DWORD PTR [esi], OFFSET ??_7CLLKDlg@@6B@
  00012	85 c0		 test	 eax, eax
  00014	74 07		 je	 SHORT $LN8@scalar

; 73   : 		m_pAutoProxy->m_pDialog = NULL;

  00016	c7 40 20 00 00
	00 00		 mov	 DWORD PTR [eax+32], 0
$LN8@scalar:

; 74   : 	// 如果非模态对话框已经创建则删除它   
; 75   : 	if (!m_pGameDlg)
; 76   : 	{
; 77   : 		// 删除非模态对话框对象   
; 78   : 		delete m_pGameDlg;
; 79   : 	}
; 80   : }

  0001d	8d 8e d8 00 00
	00		 lea	 ecx, DWORD PTR [esi+216]
  00023	e8 00 00 00 00	 call	 ??1CDC@@UAE@XZ		; CDC::~CDC
  00028	8d 8e c0 00 00
	00		 lea	 ecx, DWORD PTR [esi+192]
  0002e	e8 00 00 00 00	 call	 ??1CDialogImpl@@MAE@XZ	; CDialogImpl::~CDialogImpl
  00033	8d 8e b4 00 00
	00		 lea	 ecx, DWORD PTR [esi+180]
  00039	e8 00 00 00 00	 call	 ??1CBrush@@UAE@XZ	; CBrush::~CBrush
  0003e	8b ce		 mov	 ecx, esi
  00040	e8 00 00 00 00	 call	 ??1CDialog@@UAE@XZ	; CDialog::~CDialog
  00045	8b 45 08	 mov	 eax, DWORD PTR ___flags$[ebp]
  00048	a8 01		 test	 al, 1
  0004a	74 1f		 je	 SHORT $LN17@scalar
  0004c	a8 04		 test	 al, 4
  0004e	75 0d		 jne	 SHORT $LN3@scalar
  00050	56		 push	 esi
  00051	e8 00 00 00 00	 call	 ??3CObject@@SGXPAX@Z	; CObject::operator delete
  00056	8b c6		 mov	 eax, esi
  00058	5e		 pop	 esi
  00059	5d		 pop	 ebp
  0005a	c2 04 00	 ret	 4
$LN3@scalar:
  0005d	68 f0 00 00 00	 push	 240			; 000000f0H
  00062	56		 push	 esi
  00063	e8 00 00 00 00	 call	 ?__global_delete@@YAXPAXI@Z ; __global_delete
  00068	83 c4 08	 add	 esp, 8
$LN17@scalar:
  0006b	8b c6		 mov	 eax, esi
  0006d	5e		 pop	 esi
  0006e	5d		 pop	 ebp
  0006f	c2 04 00	 ret	 4
??_GCLLKDlg@@UAEPAXI@Z ENDP				; CLLKDlg::`scalar deleting destructor'
_TEXT	ENDS
; Function compile flags: /Ogtp
; File d:\study\数据结构与算法综合实验\连连看游戏\llkpro17.6.18\lianliankan\llkdlg.cpp
;	COMDAT ?UpdateWindow@CLLKDlg@@AAEXXZ
_TEXT	SEGMENT
_rtClient$ = -36					; size = 16
_rtWin$ = -20						; size = 16
__$ArrayPad$ = -4					; size = 4
?UpdateWindow@CLLKDlg@@AAEXXZ PROC			; CLLKDlg::UpdateWindow, COMDAT
; _this$ = ecx

; 207  : {

  00000	55		 push	 ebp
  00001	8b ec		 mov	 ebp, esp
  00003	83 ec 24	 sub	 esp, 36			; 00000024H
  00006	a1 00 00 00 00	 mov	 eax, DWORD PTR ___security_cookie
  0000b	33 c5		 xor	 eax, ebp
  0000d	89 45 fc	 mov	 DWORD PTR __$ArrayPad$[ebp], eax
  00010	56		 push	 esi
  00011	c5 f9 ef c0	 vpxor	 xmm0, xmm0, xmm0

; 208  : 	// 调整窗口大小    
; 209  : 	CRect rtWin;
; 210  : 	CRect rtClient;
; 211  : 
; 212  : 	this->GetWindowRect(rtWin);       // 获得窗口大小     

  00015	8d 45 ec	 lea	 eax, DWORD PTR _rtWin$[ebp]
  00018	8b f1		 mov	 esi, ecx
  0001a	50		 push	 eax
  0001b	c5 fa 7f 45 ec	 vmovdqu XMMWORD PTR _rtWin$[ebp], xmm0
  00020	c5 fa 7f 45 dc	 vmovdqu XMMWORD PTR _rtClient$[ebp], xmm0
  00025	e8 00 00 00 00	 call	 ?GetWindowRect@CWnd@@QBEXPAUtagRECT@@@Z ; CWnd::GetWindowRect

; 213  : 	this->GetClientRect(rtClient);    // 获得客户区大小  

  0002a	8d 45 dc	 lea	 eax, DWORD PTR _rtClient$[ebp]
  0002d	8b ce		 mov	 ecx, esi
  0002f	50		 push	 eax
  00030	e8 00 00 00 00	 call	 ?GetClientRect@CWnd@@QBEXPAUtagRECT@@@Z ; CWnd::GetClientRect

; 214  : 
; 215  : 	// 标题栏和外边框的大小     
; 216  : 	int nSpanWidth = rtWin.Width() - rtClient.Width();
; 217  : 	int nSpanHeight = rtWin.Height() - rtClient.Height();
; 218  : 
; 219  : 	MoveWindow(0, 0, 800 + nSpanWidth, 600 + nSpanHeight);  // 设置窗口大小  

  00035	8b 4d e0	 mov	 ecx, DWORD PTR _rtClient$[ebp+4]
  00038	2b 4d e8	 sub	 ecx, DWORD PTR _rtClient$[ebp+12]
  0003b	8b 45 f8	 mov	 eax, DWORD PTR _rtWin$[ebp+12]
  0003e	2b 4d f0	 sub	 ecx, DWORD PTR _rtWin$[ebp+4]
  00041	05 58 02 00 00	 add	 eax, 600		; 00000258H
  00046	8b 55 f4	 mov	 edx, DWORD PTR _rtWin$[ebp+8]
  00049	03 c1		 add	 eax, ecx
  0004b	2b 55 e4	 sub	 edx, DWORD PTR _rtClient$[ebp+8]
  0004e	8b ce		 mov	 ecx, esi
  00050	2b 55 ec	 sub	 edx, DWORD PTR _rtWin$[ebp]
  00053	6a 01		 push	 1
  00055	50		 push	 eax
  00056	8b 45 dc	 mov	 eax, DWORD PTR _rtClient$[ebp]
  00059	05 20 03 00 00	 add	 eax, 800		; 00000320H
  0005e	03 c2		 add	 eax, edx
  00060	50		 push	 eax
  00061	6a 00		 push	 0
  00063	6a 00		 push	 0
  00065	e8 00 00 00 00	 call	 ?MoveWindow@CWnd@@QAEXHHHHH@Z ; CWnd::MoveWindow

; 220  : 	CenterWindow();     // 设置对话框显示在桌面中央

  0006a	6a 00		 push	 0
  0006c	8b ce		 mov	 ecx, esi
  0006e	e8 00 00 00 00	 call	 ?CenterWindow@CWnd@@QAEXPAV1@@Z ; CWnd::CenterWindow

; 221  : 
; 222  : }

  00073	8b 4d fc	 mov	 ecx, DWORD PTR __$ArrayPad$[ebp]
  00076	33 cd		 xor	 ecx, ebp
  00078	5e		 pop	 esi
  00079	e8 00 00 00 00	 call	 @__security_check_cookie@4
  0007e	8b e5		 mov	 esp, ebp
  00080	5d		 pop	 ebp
  00081	c3		 ret	 0
?UpdateWindow@CLLKDlg@@AAEXXZ ENDP			; CLLKDlg::UpdateWindow
_TEXT	ENDS
; Function compile flags: /Ogtp
; File d:\study\数据结构与算法综合实验\连连看游戏\llkpro17.6.18\lianliankan\llkdlg.cpp
;	COMDAT ?InitBackground@CLLKDlg@@AAEXXZ
_TEXT	SEGMENT
_dc$ = -44						; size = 20
_bmpBackgrd$ = -24					; size = 8
__$ArrayPad$ = -16					; size = 4
__$EHRec$ = -12						; size = 12
?InitBackground@CLLKDlg@@AAEXXZ PROC			; CLLKDlg::InitBackground, COMDAT
; _this$ = ecx

; 184  : {

  00000	55		 push	 ebp
  00001	8b ec		 mov	 ebp, esp
  00003	6a ff		 push	 -1
  00005	68 00 00 00 00	 push	 __ehhandler$?InitBackground@CLLKDlg@@AAEXXZ
  0000a	64 a1 00 00 00
	00		 mov	 eax, DWORD PTR fs:0
  00010	50		 push	 eax
  00011	83 ec 20	 sub	 esp, 32			; 00000020H
  00014	a1 00 00 00 00	 mov	 eax, DWORD PTR ___security_cookie
  00019	33 c5		 xor	 eax, ebp
  0001b	89 45 f0	 mov	 DWORD PTR __$ArrayPad$[ebp], eax
  0001e	56		 push	 esi
  0001f	50		 push	 eax
  00020	8d 45 f4	 lea	 eax, DWORD PTR __$EHRec$[ebp]
  00023	64 a3 00 00 00
	00		 mov	 DWORD PTR fs:0, eax
  00029	8b f1		 mov	 esi, ecx

; 185  : 	UpdateWindow();   //更新窗口大小和位置

  0002b	e8 00 00 00 00	 call	 ?UpdateWindow@CLLKDlg@@AAEXXZ ; CLLKDlg::UpdateWindow
  00030	c5 f9 ef c0	 vpxor	 xmm0, xmm0, xmm0

; 186  : 
; 187  : 	// 获得当前对话框的视频内存    
; 188  : 	CClientDC dc(this);

  00034	56		 push	 esi
  00035	8d 4d d4	 lea	 ecx, DWORD PTR _dc$[ebp]
  00038	c7 45 e4 00 00
	00 00		 mov	 DWORD PTR _dc$[ebp+16], 0
  0003f	c5 fa 7f 45 d4	 vmovdqu XMMWORD PTR _dc$[ebp], xmm0
  00044	e8 00 00 00 00	 call	 ??0CClientDC@@QAE@PAVCWnd@@@Z ; CClientDC::CClientDC

; 189  : 	// 创建与视频内存兼容的内存 DC     
; 190  : 	m_dcMem.CreateCompatibleDC(&dc);

  00049	8d 45 d4	 lea	 eax, DWORD PTR _dc$[ebp]
  0004c	c7 45 fc 00 00
	00 00		 mov	 DWORD PTR __$EHRec$[ebp+8], 0
  00053	50		 push	 eax
  00054	8d 8e d8 00 00
	00		 lea	 ecx, DWORD PTR [esi+216]
  0005a	e8 00 00 00 00	 call	 ?CreateCompatibleDC@CDC@@QAEHPAV1@@Z ; CDC::CreateCompatibleDC
  0005f	c5 f9 ef c0	 vpxor	 xmm0, xmm0, xmm0

; 191  : 	CBitmap bmpBackgrd;

  00063	8d 4d e8	 lea	 ecx, DWORD PTR _bmpBackgrd$[ebp]
  00066	c5 f9 d6 45 e8	 vmovq	 QWORD PTR _bmpBackgrd$[ebp], xmm0
  0006b	e8 00 00 00 00	 call	 ??0CBitmap@@QAE@XZ	; CBitmap::CBitmap

; 192  : 	bmpBackgrd.LoadBitmap(IDB_MAIN_BG0);

  00070	68 82 00 00 00	 push	 130			; 00000082H
  00075	8d 4d e8	 lea	 ecx, DWORD PTR _bmpBackgrd$[ebp]
  00078	c6 45 fc 01	 mov	 BYTE PTR __$EHRec$[ebp+8], 1
  0007c	e8 00 00 00 00	 call	 ?LoadBitmapW@CBitmap@@QAEHI@Z ; CBitmap::LoadBitmapW

; 193  : 	// 将位图资源选入 DC    
; 194  : 	m_dcMem.SelectObject(bmpBackgrd);

  00081	8d 4d e8	 lea	 ecx, DWORD PTR _bmpBackgrd$[ebp]
  00084	e8 00 00 00 00	 call	 ??BCGdiObject@@QBEPAXXZ	; CGdiObject::operator void *
  00089	50		 push	 eax
  0008a	8d 8e d8 00 00
	00		 lea	 ecx, DWORD PTR [esi+216]
  00090	e8 00 00 00 00	 call	 ?SelectObject@CDC@@QAEPAXPAX@Z ; CDC::SelectObject

; 195  : 	/*
; 196  : 	CRect rc;
; 197  : 	GetClientRect(&rc);
; 198  : 	BITMAP bitmap;
; 199  : 	bmpBackground.GetBitmap(&bitmap);
; 200  : 	CBitmap* pbmpPri = m_dcMem.SelectObject(&bmpBackground);
; 201  : 	dc.StretchBlt(0, 0, rc.Width(), rc.Height(), &m_dcMem, 0, 0, bitmap.bmWidth, bitmap.bmHeight, SRCCOPY);
; 202  : 	dc.SelectObject(pbmpPri);
; 203  : 	*/
; 204  : }

  00095	8d 4d e8	 lea	 ecx, DWORD PTR _bmpBackgrd$[ebp]
  00098	e8 00 00 00 00	 call	 ??1CBitmap@@UAE@XZ	; CBitmap::~CBitmap
  0009d	8d 4d d4	 lea	 ecx, DWORD PTR _dc$[ebp]
  000a0	e8 00 00 00 00	 call	 ??1CClientDC@@UAE@XZ	; CClientDC::~CClientDC
  000a5	8b 4d f4	 mov	 ecx, DWORD PTR __$EHRec$[ebp]
  000a8	64 89 0d 00 00
	00 00		 mov	 DWORD PTR fs:0, ecx
  000af	59		 pop	 ecx
  000b0	5e		 pop	 esi
  000b1	8b 4d f0	 mov	 ecx, DWORD PTR __$ArrayPad$[ebp]
  000b4	33 cd		 xor	 ecx, ebp
  000b6	e8 00 00 00 00	 call	 @__security_check_cookie@4
  000bb	8b e5		 mov	 esp, ebp
  000bd	5d		 pop	 ebp
  000be	c3		 ret	 0
_TEXT	ENDS
;	COMDAT text$x
text$x	SEGMENT
__unwindfunclet$?InitBackground@CLLKDlg@@AAEXXZ$0:
  00000	8d 4d d4	 lea	 ecx, DWORD PTR _dc$[ebp]
  00003	e9 00 00 00 00	 jmp	 ??1CClientDC@@UAE@XZ	; CClientDC::~CClientDC
__unwindfunclet$?InitBackground@CLLKDlg@@AAEXXZ$1:
  00008	8d 4d e8	 lea	 ecx, DWORD PTR _bmpBackgrd$[ebp]
  0000b	e9 00 00 00 00	 jmp	 ??1CBitmap@@UAE@XZ	; CBitmap::~CBitmap
__ehhandler$?InitBackground@CLLKDlg@@AAEXXZ:
  00010	8b 54 24 08	 mov	 edx, DWORD PTR [esp+8]
  00014	8d 42 0c	 lea	 eax, DWORD PTR [edx+12]
  00017	8b 4a d8	 mov	 ecx, DWORD PTR [edx-40]
  0001a	33 c8		 xor	 ecx, eax
  0001c	e8 00 00 00 00	 call	 @__security_check_cookie@4
  00021	8b 4a fc	 mov	 ecx, DWORD PTR [edx-4]
  00024	33 c8		 xor	 ecx, eax
  00026	e8 00 00 00 00	 call	 @__security_check_cookie@4
  0002b	b8 00 00 00 00	 mov	 eax, OFFSET __ehfuncinfo$?InitBackground@CLLKDlg@@AAEXXZ
  00030	e9 00 00 00 00	 jmp	 ___CxxFrameHandler3
text$x	ENDS
?InitBackground@CLLKDlg@@AAEXXZ ENDP			; CLLKDlg::InitBackground
; Function compile flags: /Ogtp
; File d:\study\数据结构与算法综合实验\连连看游戏\llkpro17.6.18\lianliankan\llkdlg.cpp
;	COMDAT ?OnBnClickedBtnLevel@CLLKDlg@@QAEXXZ
_TEXT	SEGMENT
$T2 = -16						; size = 4
__$EHRec$ = -12						; size = 12
?OnBnClickedBtnLevel@CLLKDlg@@QAEXXZ PROC		; CLLKDlg::OnBnClickedBtnLevel, COMDAT
; _this$ = ecx

; 297  : {

  00000	55		 push	 ebp
  00001	8b ec		 mov	 ebp, esp
  00003	6a ff		 push	 -1
  00005	68 00 00 00 00	 push	 __ehhandler$?OnBnClickedBtnLevel@CLLKDlg@@QAEXXZ
  0000a	64 a1 00 00 00
	00		 mov	 eax, DWORD PTR fs:0
  00010	50		 push	 eax
  00011	51		 push	 ecx
  00012	56		 push	 esi
  00013	a1 00 00 00 00	 mov	 eax, DWORD PTR ___security_cookie
  00018	33 c5		 xor	 eax, ebp
  0001a	50		 push	 eax
  0001b	8d 45 f4	 lea	 eax, DWORD PTR __$EHRec$[ebp]
  0001e	64 a3 00 00 00
	00		 mov	 DWORD PTR fs:0, eax
  00024	8b f1		 mov	 esi, ecx

; 298  : 	// 创建非模态对话框实例 
; 299  : 	m_pGameDlg = new CGameDlg(2, this);	  //模式位设为2（关卡模式）

  00026	a1 00 00 00 00	 mov	 eax, DWORD PTR ?__LINE__Var@?0??OnBnClickedBtnLevel@CLLKDlg@@QAEXXZ@4JA
  0002b	83 c0 02	 add	 eax, 2
  0002e	50		 push	 eax
  0002f	68 00 00 00 00	 push	 OFFSET ??_C@_0FA@JCGMDLPD@d?3?2study?2?J?$PN?$LO?$NN?$LN?a?$LJ?$LJ?S?k?K?c?$LH?$KI?W?$NL?$LK?O?J?$LF?Q?i?2@
  00034	68 a8 01 00 00	 push	 424			; 000001a8H
  00039	e8 00 00 00 00	 call	 ??2CObject@@SGPAXIPBDH@Z ; CObject::operator new
  0003e	89 45 f0	 mov	 DWORD PTR $T2[ebp], eax
  00041	c7 45 fc 00 00
	00 00		 mov	 DWORD PTR __$EHRec$[ebp+8], 0
  00048	85 c0		 test	 eax, eax
  0004a	74 0e		 je	 SHORT $LN3@OnBnClicke
  0004c	56		 push	 esi
  0004d	6a 02		 push	 2
  0004f	8b c8		 mov	 ecx, eax
  00051	e8 00 00 00 00	 call	 ??0CGameDlg@@QAE@HPAVCWnd@@@Z ; CGameDlg::CGameDlg
  00056	8b c8		 mov	 ecx, eax
  00058	eb 02		 jmp	 SHORT $LN4@OnBnClicke
$LN3@OnBnClicke:
  0005a	33 c9		 xor	 ecx, ecx
$LN4@OnBnClicke:
  0005c	89 8e e8 00 00
	00		 mov	 DWORD PTR [esi+232], ecx

; 300  : 	m_pGameDlg->Create(IDD_GAME_DIALOG, this);

  00062	8b 01		 mov	 eax, DWORD PTR [ecx]
  00064	56		 push	 esi
  00065	68 8c 00 00 00	 push	 140			; 0000008cH
  0006a	c7 45 fc ff ff
	ff ff		 mov	 DWORD PTR __$EHRec$[ebp+8], -1
  00071	ff 90 6c 01 00
	00		 call	 DWORD PTR [eax+364]

; 301  : 
; 302  : 	//各种关卡模式下的界面调整和初始化
; 303  : 
; 304  : 	// 显示非模态对话框 
; 305  : 	m_pGameDlg->ShowWindow(SW_SHOW);

  00077	8b 8e e8 00 00
	00		 mov	 ecx, DWORD PTR [esi+232]
  0007d	6a 05		 push	 5
  0007f	e8 00 00 00 00	 call	 ?ShowWindow@CWnd@@QAEHH@Z ; CWnd::ShowWindow

; 306  : }

  00084	8b 4d f4	 mov	 ecx, DWORD PTR __$EHRec$[ebp]
  00087	64 89 0d 00 00
	00 00		 mov	 DWORD PTR fs:0, ecx
  0008e	59		 pop	 ecx
  0008f	5e		 pop	 esi
  00090	8b e5		 mov	 esp, ebp
  00092	5d		 pop	 ebp
  00093	c3		 ret	 0
_TEXT	ENDS
;	COMDAT text$x
text$x	SEGMENT
__unwindfunclet$?OnBnClickedBtnLevel@CLLKDlg@@QAEXXZ$0:
  00000	a1 00 00 00 00	 mov	 eax, DWORD PTR ?__LINE__Var@?0??OnBnClickedBtnLevel@CLLKDlg@@QAEXXZ@4JA
  00005	83 c0 02	 add	 eax, 2
  00008	50		 push	 eax
  00009	68 00 00 00 00	 push	 OFFSET ??_C@_0FA@JCGMDLPD@d?3?2study?2?J?$PN?$LO?$NN?$LN?a?$LJ?$LJ?S?k?K?c?$LH?$KI?W?$NL?$LK?O?J?$LF?Q?i?2@
  0000e	8b 45 f0	 mov	 eax, DWORD PTR $T2[ebp]
  00011	50		 push	 eax
  00012	e8 00 00 00 00	 call	 ??3CObject@@SGXPAXPBDH@Z ; CObject::operator delete
  00017	c3		 ret	 0
__ehhandler$?OnBnClickedBtnLevel@CLLKDlg@@QAEXXZ:
  00018	8b 54 24 08	 mov	 edx, DWORD PTR [esp+8]
  0001c	8d 42 0c	 lea	 eax, DWORD PTR [edx+12]
  0001f	8b 4a f4	 mov	 ecx, DWORD PTR [edx-12]
  00022	33 c8		 xor	 ecx, eax
  00024	e8 00 00 00 00	 call	 @__security_check_cookie@4
  00029	b8 00 00 00 00	 mov	 eax, OFFSET __ehfuncinfo$?OnBnClickedBtnLevel@CLLKDlg@@QAEXXZ
  0002e	e9 00 00 00 00	 jmp	 ___CxxFrameHandler3
text$x	ENDS
?OnBnClickedBtnLevel@CLLKDlg@@QAEXXZ ENDP		; CLLKDlg::OnBnClickedBtnLevel
; Function compile flags: /Ogtp
; File d:\study\数据结构与算法综合实验\连连看游戏\llkpro17.6.18\lianliankan\llkdlg.cpp
;	COMDAT ?OnBnClickedBtnRelax@CLLKDlg@@QAEXXZ
_TEXT	SEGMENT
$T2 = -16						; size = 4
__$EHRec$ = -12						; size = 12
?OnBnClickedBtnRelax@CLLKDlg@@QAEXXZ PROC		; CLLKDlg::OnBnClickedBtnRelax, COMDAT
; _this$ = ecx

; 288  : {;

  00000	55		 push	 ebp
  00001	8b ec		 mov	 ebp, esp
  00003	6a ff		 push	 -1
  00005	68 00 00 00 00	 push	 __ehhandler$?OnBnClickedBtnRelax@CLLKDlg@@QAEXXZ
  0000a	64 a1 00 00 00
	00		 mov	 eax, DWORD PTR fs:0
  00010	50		 push	 eax
  00011	51		 push	 ecx
  00012	56		 push	 esi
  00013	a1 00 00 00 00	 mov	 eax, DWORD PTR ___security_cookie
  00018	33 c5		 xor	 eax, ebp
  0001a	50		 push	 eax
  0001b	8d 45 f4	 lea	 eax, DWORD PTR __$EHRec$[ebp]
  0001e	64 a3 00 00 00
	00		 mov	 DWORD PTR fs:0, eax
  00024	8b f1		 mov	 esi, ecx

; 289  : 	// 创建非模态对话框实例 
; 290  : 	m_pGameDlg = new CGameDlg(1, this);     //模式位设为1（休闲模式）

  00026	a1 00 00 00 00	 mov	 eax, DWORD PTR ?__LINE__Var@?0??OnBnClickedBtnRelax@CLLKDlg@@QAEXXZ@4JA
  0002b	83 c0 02	 add	 eax, 2
  0002e	50		 push	 eax
  0002f	68 00 00 00 00	 push	 OFFSET ??_C@_0FA@JCGMDLPD@d?3?2study?2?J?$PN?$LO?$NN?$LN?a?$LJ?$LJ?S?k?K?c?$LH?$KI?W?$NL?$LK?O?J?$LF?Q?i?2@
  00034	68 a8 01 00 00	 push	 424			; 000001a8H
  00039	e8 00 00 00 00	 call	 ??2CObject@@SGPAXIPBDH@Z ; CObject::operator new
  0003e	89 45 f0	 mov	 DWORD PTR $T2[ebp], eax
  00041	c7 45 fc 00 00
	00 00		 mov	 DWORD PTR __$EHRec$[ebp+8], 0
  00048	85 c0		 test	 eax, eax
  0004a	74 0e		 je	 SHORT $LN3@OnBnClicke
  0004c	56		 push	 esi
  0004d	6a 01		 push	 1
  0004f	8b c8		 mov	 ecx, eax
  00051	e8 00 00 00 00	 call	 ??0CGameDlg@@QAE@HPAVCWnd@@@Z ; CGameDlg::CGameDlg
  00056	8b c8		 mov	 ecx, eax
  00058	eb 02		 jmp	 SHORT $LN4@OnBnClicke
$LN3@OnBnClicke:
  0005a	33 c9		 xor	 ecx, ecx
$LN4@OnBnClicke:
  0005c	89 8e e8 00 00
	00		 mov	 DWORD PTR [esi+232], ecx

; 291  : 	m_pGameDlg->Create(IDD_GAME_DIALOG, this);	

  00062	8b 01		 mov	 eax, DWORD PTR [ecx]
  00064	56		 push	 esi
  00065	68 8c 00 00 00	 push	 140			; 0000008cH
  0006a	c7 45 fc ff ff
	ff ff		 mov	 DWORD PTR __$EHRec$[ebp+8], -1
  00071	ff 90 6c 01 00
	00		 call	 DWORD PTR [eax+364]

; 292  : 	// 显示非模态对话框 
; 293  : 	m_pGameDlg->ShowWindow(SW_SHOW);

  00077	8b 8e e8 00 00
	00		 mov	 ecx, DWORD PTR [esi+232]
  0007d	6a 05		 push	 5
  0007f	e8 00 00 00 00	 call	 ?ShowWindow@CWnd@@QAEHH@Z ; CWnd::ShowWindow

; 294  : }

  00084	8b 4d f4	 mov	 ecx, DWORD PTR __$EHRec$[ebp]
  00087	64 89 0d 00 00
	00 00		 mov	 DWORD PTR fs:0, ecx
  0008e	59		 pop	 ecx
  0008f	5e		 pop	 esi
  00090	8b e5		 mov	 esp, ebp
  00092	5d		 pop	 ebp
  00093	c3		 ret	 0
_TEXT	ENDS
;	COMDAT text$x
text$x	SEGMENT
__unwindfunclet$?OnBnClickedBtnRelax@CLLKDlg@@QAEXXZ$0:
  00000	a1 00 00 00 00	 mov	 eax, DWORD PTR ?__LINE__Var@?0??OnBnClickedBtnRelax@CLLKDlg@@QAEXXZ@4JA
  00005	83 c0 02	 add	 eax, 2
  00008	50		 push	 eax
  00009	68 00 00 00 00	 push	 OFFSET ??_C@_0FA@JCGMDLPD@d?3?2study?2?J?$PN?$LO?$NN?$LN?a?$LJ?$LJ?S?k?K?c?$LH?$KI?W?$NL?$LK?O?J?$LF?Q?i?2@
  0000e	8b 45 f0	 mov	 eax, DWORD PTR $T2[ebp]
  00011	50		 push	 eax
  00012	e8 00 00 00 00	 call	 ??3CObject@@SGXPAXPBDH@Z ; CObject::operator delete
  00017	c3		 ret	 0
__ehhandler$?OnBnClickedBtnRelax@CLLKDlg@@QAEXXZ:
  00018	8b 54 24 08	 mov	 edx, DWORD PTR [esp+8]
  0001c	8d 42 0c	 lea	 eax, DWORD PTR [edx+12]
  0001f	8b 4a f4	 mov	 ecx, DWORD PTR [edx-12]
  00022	33 c8		 xor	 ecx, eax
  00024	e8 00 00 00 00	 call	 @__security_check_cookie@4
  00029	b8 00 00 00 00	 mov	 eax, OFFSET __ehfuncinfo$?OnBnClickedBtnRelax@CLLKDlg@@QAEXXZ
  0002e	e9 00 00 00 00	 jmp	 ___CxxFrameHandler3
text$x	ENDS
?OnBnClickedBtnRelax@CLLKDlg@@QAEXXZ ENDP		; CLLKDlg::OnBnClickedBtnRelax
; Function compile flags: /Ogtp
; File d:\study\数据结构与算法综合实验\连连看游戏\llkpro17.6.18\lianliankan\llkdlg.cpp
;	COMDAT ?OnBnClickedBtnRank@CLLKDlg@@QAEXXZ
_TEXT	SEGMENT
?OnBnClickedBtnRank@CLLKDlg@@QAEXXZ PROC		; CLLKDlg::OnBnClickedBtnRank, COMDAT
; _this$ = ecx

; 319  : 
; 320  : }

  00000	c3		 ret	 0
?OnBnClickedBtnRank@CLLKDlg@@QAEXXZ ENDP		; CLLKDlg::OnBnClickedBtnRank
_TEXT	ENDS
; Function compile flags: /Ogtp
; File d:\study\数据结构与算法综合实验\连连看游戏\llkpro17.6.18\lianliankan\llkdlg.cpp
;	COMDAT ?OnBnClickedBtnHelp@CLLKDlg@@QAEXXZ
_TEXT	SEGMENT
_gameHelpDlg$ = -224					; size = 208
__$ArrayPad$ = -16					; size = 4
__$EHRec$ = -12						; size = 12
?OnBnClickedBtnHelp@CLLKDlg@@QAEXXZ PROC		; CLLKDlg::OnBnClickedBtnHelp, COMDAT
; _this$ = ecx

; 328  : {

  00000	55		 push	 ebp
  00001	8b ec		 mov	 ebp, esp
  00003	6a ff		 push	 -1
  00005	68 00 00 00 00	 push	 __ehhandler$?OnBnClickedBtnHelp@CLLKDlg@@QAEXXZ
  0000a	64 a1 00 00 00
	00		 mov	 eax, DWORD PTR fs:0
  00010	50		 push	 eax
  00011	81 ec d4 00 00
	00		 sub	 esp, 212		; 000000d4H
  00017	a1 00 00 00 00	 mov	 eax, DWORD PTR ___security_cookie
  0001c	33 c5		 xor	 eax, ebp
  0001e	89 45 f0	 mov	 DWORD PTR __$ArrayPad$[ebp], eax
  00021	50		 push	 eax
  00022	8d 45 f4	 lea	 eax, DWORD PTR __$EHRec$[ebp]
  00025	64 a3 00 00 00
	00		 mov	 DWORD PTR fs:0, eax
  0002b	68 d0 00 00 00	 push	 208			; 000000d0H
  00030	8d 85 20 ff ff
	ff		 lea	 eax, DWORD PTR _gameHelpDlg$[ebp]
  00036	6a 00		 push	 0
  00038	50		 push	 eax
  00039	e8 00 00 00 00	 call	 _memset
  0003e	83 c4 0c	 add	 esp, 12			; 0000000cH

; 329  : 	//创建并模态显示“帮助”对话框
; 330  : 	CGameHelp gameHelpDlg;

  00041	8d 8d 20 ff ff
	ff		 lea	 ecx, DWORD PTR _gameHelpDlg$[ebp]
  00047	6a 00		 push	 0
  00049	e8 00 00 00 00	 call	 ??0CGameHelp@@QAE@PAVCWnd@@@Z ; CGameHelp::CGameHelp

; 331  : 	gameHelpDlg.DoModal();

  0004e	8d 8d 20 ff ff
	ff		 lea	 ecx, DWORD PTR _gameHelpDlg$[ebp]
  00054	c7 45 fc 00 00
	00 00		 mov	 DWORD PTR __$EHRec$[ebp+8], 0
  0005b	e8 00 00 00 00	 call	 ?DoModal@CDialog@@UAEHXZ ; CDialog::DoModal

; 332  : }

  00060	8d 8d 20 ff ff
	ff		 lea	 ecx, DWORD PTR _gameHelpDlg$[ebp]
  00066	e8 00 00 00 00	 call	 ??1CGameHelp@@UAE@XZ	; CGameHelp::~CGameHelp
  0006b	8b 4d f4	 mov	 ecx, DWORD PTR __$EHRec$[ebp]
  0006e	64 89 0d 00 00
	00 00		 mov	 DWORD PTR fs:0, ecx
  00075	59		 pop	 ecx
  00076	8b 4d f0	 mov	 ecx, DWORD PTR __$ArrayPad$[ebp]
  00079	33 cd		 xor	 ecx, ebp
  0007b	e8 00 00 00 00	 call	 @__security_check_cookie@4
  00080	8b e5		 mov	 esp, ebp
  00082	5d		 pop	 ebp
  00083	c3		 ret	 0
_TEXT	ENDS
;	COMDAT text$x
text$x	SEGMENT
__unwindfunclet$?OnBnClickedBtnHelp@CLLKDlg@@QAEXXZ$0:
  00000	8d 8d 20 ff ff
	ff		 lea	 ecx, DWORD PTR _gameHelpDlg$[ebp]
  00006	e9 00 00 00 00	 jmp	 ??1CGameHelp@@UAE@XZ	; CGameHelp::~CGameHelp
__ehhandler$?OnBnClickedBtnHelp@CLLKDlg@@QAEXXZ:
  0000b	8b 54 24 08	 mov	 edx, DWORD PTR [esp+8]
  0000f	8d 42 0c	 lea	 eax, DWORD PTR [edx+12]
  00012	8b 8a 28 ff ff
	ff		 mov	 ecx, DWORD PTR [edx-216]
  00018	33 c8		 xor	 ecx, eax
  0001a	e8 00 00 00 00	 call	 @__security_check_cookie@4
  0001f	8b 4a fc	 mov	 ecx, DWORD PTR [edx-4]
  00022	33 c8		 xor	 ecx, eax
  00024	e8 00 00 00 00	 call	 @__security_check_cookie@4
  00029	b8 00 00 00 00	 mov	 eax, OFFSET __ehfuncinfo$?OnBnClickedBtnHelp@CLLKDlg@@QAEXXZ
  0002e	e9 00 00 00 00	 jmp	 ___CxxFrameHandler3
text$x	ENDS
?OnBnClickedBtnHelp@CLLKDlg@@QAEXXZ ENDP		; CLLKDlg::OnBnClickedBtnHelp
; Function compile flags: /Ogtp
; File d:\study\数据结构与算法综合实验\连连看游戏\llkpro17.6.18\lianliankan\llkdlg.cpp
;	COMDAT ?OnBnClickedBtnSetting@CLLKDlg@@QAEXXZ
_TEXT	SEGMENT
?OnBnClickedBtnSetting@CLLKDlg@@QAEXXZ PROC		; CLLKDlg::OnBnClickedBtnSetting, COMDAT
; _this$ = ecx

; 324  : 
; 325  : }

  00000	c3		 ret	 0
?OnBnClickedBtnSetting@CLLKDlg@@QAEXXZ ENDP		; CLLKDlg::OnBnClickedBtnSetting
_TEXT	ENDS
; Function compile flags: /Ogtp
; File d:\study\数据结构与算法综合实验\连连看游戏\llkpro17.6.18\lianliankan\llkdlg.cpp
;	COMDAT ?OnBnClickedBtnExit@CLLKDlg@@QAEXXZ
_TEXT	SEGMENT
?OnBnClickedBtnExit@CLLKDlg@@QAEXXZ PROC		; CLLKDlg::OnBnClickedBtnExit, COMDAT
; _this$ = ecx

; 309  : {

  00000	56		 push	 esi

; 310  : 	if (MessageBox(_T("确实要退出吗？"), _T("提示"), MB_OKCANCEL | MB_ICONWARNING) == IDOK)

  00001	6a 31		 push	 49			; 00000031H
  00003	68 00 00 00 00	 push	 OFFSET ??_C@_15EGCHAEPE@c?Py?3?$AA?$AA@
  00008	68 00 00 00 00	 push	 OFFSET ??_C@_1BA@LALLHPFH@xn?$FL?$JO?$IJ?$IB?$JA?$AAQ?zT?$BH?$PP?$BP?$AA?$AA@
  0000d	8b f1		 mov	 esi, ecx
  0000f	e8 00 00 00 00	 call	 ?MessageBoxW@CWnd@@QAEHPB_W0I@Z ; CWnd::MessageBoxW
  00014	83 f8 01	 cmp	 eax, 1
  00017	75 08		 jne	 SHORT $LN2@OnBnClicke

; 311  : 	{
; 312  : 		CDialog::OnCancel();

  00019	8b ce		 mov	 ecx, esi
  0001b	5e		 pop	 esi
  0001c	e9 00 00 00 00	 jmp	 ?OnCancel@CDialog@@MAEXXZ ; CDialog::OnCancel
$LN2@OnBnClicke:
  00021	5e		 pop	 esi

; 313  : 	}
; 314  : }

  00022	c3		 ret	 0
?OnBnClickedBtnExit@CLLKDlg@@QAEXXZ ENDP		; CLLKDlg::OnBnClickedBtnExit
_TEXT	ENDS
; Function compile flags: /Ogtp
; File d:\study\数据结构与算法综合实验\连连看游戏\llkpro17.6.18\lianliankan\llkdlg.cpp
;	COMDAT ?OnBnClickedBtnBasic@CLLKDlg@@QAEXXZ
_TEXT	SEGMENT
$T2 = -16						; size = 4
__$EHRec$ = -12						; size = 12
?OnBnClickedBtnBasic@CLLKDlg@@QAEXXZ PROC		; CLLKDlg::OnBnClickedBtnBasic, COMDAT
; _this$ = ecx

; 270  : {

  00000	55		 push	 ebp
  00001	8b ec		 mov	 ebp, esp
  00003	6a ff		 push	 -1
  00005	68 00 00 00 00	 push	 __ehhandler$?OnBnClickedBtnBasic@CLLKDlg@@QAEXXZ
  0000a	64 a1 00 00 00
	00		 mov	 eax, DWORD PTR fs:0
  00010	50		 push	 eax
  00011	51		 push	 ecx
  00012	56		 push	 esi
  00013	a1 00 00 00 00	 mov	 eax, DWORD PTR ___security_cookie
  00018	33 c5		 xor	 eax, ebp
  0001a	50		 push	 eax
  0001b	8d 45 f4	 lea	 eax, DWORD PTR __$EHRec$[ebp]
  0001e	64 a3 00 00 00
	00		 mov	 DWORD PTR fs:0, eax
  00024	8b f1		 mov	 esi, ecx

; 271  : 	/*
; 272  : 	//模态game对话框显示
; 273  : 	CGameDlg gamedlg;  // 构造对话框类CTipDlg的实例
; 274  : 	INT_PTR nRes = gamedlg.DoModal();     // 弹出对话框，并保存DoModal函数的返回值 
; 275  : 	if (IDCANCEL == nRes)      // 判断对话框退出后返回值是否为IDCANCEL，如果是则 return，否则继续向下执行
; 276  : 		return;   
; 277  : 	//CWnd::ShowWindow(SW_HIDE);
; 278  : 	*/
; 279  : 
; 280  : 	// 创建非模态对话框实例 
; 281  : 	m_pGameDlg = new CGameDlg(0, this);

  00026	a1 00 00 00 00	 mov	 eax, DWORD PTR ?__LINE__Var@?0??OnBnClickedBtnBasic@CLLKDlg@@QAEXXZ@4JA
  0002b	83 c0 0b	 add	 eax, 11			; 0000000bH
  0002e	50		 push	 eax
  0002f	68 00 00 00 00	 push	 OFFSET ??_C@_0FA@JCGMDLPD@d?3?2study?2?J?$PN?$LO?$NN?$LN?a?$LJ?$LJ?S?k?K?c?$LH?$KI?W?$NL?$LK?O?J?$LF?Q?i?2@
  00034	68 a8 01 00 00	 push	 424			; 000001a8H
  00039	e8 00 00 00 00	 call	 ??2CObject@@SGPAXIPBDH@Z ; CObject::operator new
  0003e	89 45 f0	 mov	 DWORD PTR $T2[ebp], eax
  00041	c7 45 fc 00 00
	00 00		 mov	 DWORD PTR __$EHRec$[ebp+8], 0
  00048	85 c0		 test	 eax, eax
  0004a	74 0e		 je	 SHORT $LN3@OnBnClicke
  0004c	56		 push	 esi
  0004d	6a 00		 push	 0
  0004f	8b c8		 mov	 ecx, eax
  00051	e8 00 00 00 00	 call	 ??0CGameDlg@@QAE@HPAVCWnd@@@Z ; CGameDlg::CGameDlg
  00056	8b c8		 mov	 ecx, eax
  00058	eb 02		 jmp	 SHORT $LN4@OnBnClicke
$LN3@OnBnClicke:
  0005a	33 c9		 xor	 ecx, ecx
$LN4@OnBnClicke:
  0005c	89 8e e8 00 00
	00		 mov	 DWORD PTR [esi+232], ecx

; 282  : 	m_pGameDlg->Create(IDD_GAME_DIALOG, this);

  00062	8b 01		 mov	 eax, DWORD PTR [ecx]
  00064	56		 push	 esi
  00065	68 8c 00 00 00	 push	 140			; 0000008cH
  0006a	c7 45 fc ff ff
	ff ff		 mov	 DWORD PTR __$EHRec$[ebp+8], -1
  00071	ff 90 6c 01 00
	00		 call	 DWORD PTR [eax+364]

; 283  : 	// 显示非模态对话框 
; 284  : 	m_pGameDlg->ShowWindow(SW_SHOW);

  00077	8b 8e e8 00 00
	00		 mov	 ecx, DWORD PTR [esi+232]
  0007d	6a 05		 push	 5
  0007f	e8 00 00 00 00	 call	 ?ShowWindow@CWnd@@QAEHH@Z ; CWnd::ShowWindow

; 285  : }

  00084	8b 4d f4	 mov	 ecx, DWORD PTR __$EHRec$[ebp]
  00087	64 89 0d 00 00
	00 00		 mov	 DWORD PTR fs:0, ecx
  0008e	59		 pop	 ecx
  0008f	5e		 pop	 esi
  00090	8b e5		 mov	 esp, ebp
  00092	5d		 pop	 ebp
  00093	c3		 ret	 0
_TEXT	ENDS
;	COMDAT text$x
text$x	SEGMENT
__unwindfunclet$?OnBnClickedBtnBasic@CLLKDlg@@QAEXXZ$0:
  00000	a1 00 00 00 00	 mov	 eax, DWORD PTR ?__LINE__Var@?0??OnBnClickedBtnBasic@CLLKDlg@@QAEXXZ@4JA
  00005	83 c0 0b	 add	 eax, 11			; 0000000bH
  00008	50		 push	 eax
  00009	68 00 00 00 00	 push	 OFFSET ??_C@_0FA@JCGMDLPD@d?3?2study?2?J?$PN?$LO?$NN?$LN?a?$LJ?$LJ?S?k?K?c?$LH?$KI?W?$NL?$LK?O?J?$LF?Q?i?2@
  0000e	8b 45 f0	 mov	 eax, DWORD PTR $T2[ebp]
  00011	50		 push	 eax
  00012	e8 00 00 00 00	 call	 ??3CObject@@SGXPAXPBDH@Z ; CObject::operator delete
  00017	c3		 ret	 0
__ehhandler$?OnBnClickedBtnBasic@CLLKDlg@@QAEXXZ:
  00018	8b 54 24 08	 mov	 edx, DWORD PTR [esp+8]
  0001c	8d 42 0c	 lea	 eax, DWORD PTR [edx+12]
  0001f	8b 4a f4	 mov	 ecx, DWORD PTR [edx-12]
  00022	33 c8		 xor	 ecx, eax
  00024	e8 00 00 00 00	 call	 @__security_check_cookie@4
  00029	b8 00 00 00 00	 mov	 eax, OFFSET __ehfuncinfo$?OnBnClickedBtnBasic@CLLKDlg@@QAEXXZ
  0002e	e9 00 00 00 00	 jmp	 ___CxxFrameHandler3
text$x	ENDS
?OnBnClickedBtnBasic@CLLKDlg@@QAEXXZ ENDP		; CLLKDlg::OnBnClickedBtnBasic
; Function compile flags: /Ogtp
; File d:\study\数据结构与算法综合实验\连连看游戏\llkpro17.6.18\lianliankan\llkdlg.cpp
;	COMDAT ?GetMessageMap@CLLKDlg@@MBEPBUAFX_MSGMAP@@XZ
_TEXT	SEGMENT
?GetMessageMap@CLLKDlg@@MBEPBUAFX_MSGMAP@@XZ PROC	; CLLKDlg::GetMessageMap, COMDAT
; _this$ = ecx

; 87   : BEGIN_MESSAGE_MAP(CLLKDlg, CDialogEx)

  00000	b8 00 00 00 00	 mov	 eax, OFFSET ?messageMap@?1??GetThisMessageMap@CLLKDlg@@KGPBUAFX_MSGMAP@@XZ@4U3@B
  00005	c3		 ret	 0
?GetMessageMap@CLLKDlg@@MBEPBUAFX_MSGMAP@@XZ ENDP	; CLLKDlg::GetMessageMap
_TEXT	ENDS
; Function compile flags: /Ogtp
; File d:\study\数据结构与算法综合实验\连连看游戏\llkpro17.6.18\lianliankan\llkdlg.cpp
;	COMDAT ?GetThisMessageMap@CLLKDlg@@KGPBUAFX_MSGMAP@@XZ
_TEXT	SEGMENT
?GetThisMessageMap@CLLKDlg@@KGPBUAFX_MSGMAP@@XZ PROC	; CLLKDlg::GetThisMessageMap, COMDAT

; 88   : 	ON_WM_SYSCOMMAND()
; 89   : 	ON_WM_CLOSE()
; 90   : 	ON_WM_PAINT()
; 91   : 	ON_WM_QUERYDRAGICON()
; 92   : 	ON_BN_CLICKED(IDC_BTN_BASIC, &CLLKDlg::OnBnClickedBtnBasic)
; 93   : 	ON_BN_CLICKED(IDC_BTN_RELAX, &CLLKDlg::OnBnClickedBtnRelax)
; 94   : 	ON_BN_CLICKED(IDC_BTN_LEVEL, &CLLKDlg::OnBnClickedBtnLevel)
; 95   : 	ON_BN_CLICKED(IDB_BTN_SETTING, &CLLKDlg::OnBnClickedBtnSetting)
; 96   : 	ON_BN_CLICKED(IDB_BTN_HELP, &CLLKDlg::OnBnClickedBtnHelp)
; 97   : 	ON_BN_CLICKED(IDB_BTN_RANK, &CLLKDlg::OnBnClickedBtnRank)
; 98   : 	ON_BN_CLICKED(IDC_BTN_EXIT, &CLLKDlg::OnBnClickedBtnExit)
; 99   : END_MESSAGE_MAP()

  00000	b8 00 00 00 00	 mov	 eax, OFFSET ?messageMap@?1??GetThisMessageMap@CLLKDlg@@KGPBUAFX_MSGMAP@@XZ@4U3@B
  00005	c3		 ret	 0
?GetThisMessageMap@CLLKDlg@@KGPBUAFX_MSGMAP@@XZ ENDP	; CLLKDlg::GetThisMessageMap
_TEXT	ENDS
; Function compile flags: /Ogtp
; File d:\study\数据结构与算法综合实验\连连看游戏\llkpro17.6.18\lianliankan\llkdlg.cpp
;	COMDAT ?OnCancel@CLLKDlg@@MAEXXZ
_TEXT	SEGMENT
?OnCancel@CLLKDlg@@MAEXXZ PROC				; CLLKDlg::OnCancel, COMDAT
; _this$ = ecx

; 259  : 	if (m_pAutoProxy != NULL)

  00000	83 b9 d0 00 00
	00 00		 cmp	 DWORD PTR [ecx+208], 0
  00007	74 08		 je	 SHORT $LN5@OnCancel

; 260  : 	{
; 261  : 		ShowWindow(SW_HIDE);

  00009	6a 00		 push	 0
  0000b	e8 00 00 00 00	 call	 ?ShowWindow@CWnd@@QAEHH@Z ; CWnd::ShowWindow

; 252  : }

  00010	c3		 ret	 0
$LN5@OnCancel:

; 250  : 	if (CanExit())
; 251  : 		CDialogEx::OnCancel();

  00011	e9 00 00 00 00	 jmp	 ?OnCancel@CDialog@@MAEXXZ ; CDialog::OnCancel
?OnCancel@CLLKDlg@@MAEXXZ ENDP				; CLLKDlg::OnCancel
_TEXT	ENDS
; Function compile flags: /Ogtp
; File d:\study\数据结构与算法综合实验\连连看游戏\llkpro17.6.18\lianliankan\llkdlg.cpp
;	COMDAT ?OnClose@CLLKDlg@@IAEXXZ
_TEXT	SEGMENT
?OnClose@CLLKDlg@@IAEXXZ PROC				; CLLKDlg::OnClose, COMDAT
; _this$ = ecx

; 237  : {

  00000	56		 push	 esi
  00001	8b f1		 mov	 esi, ecx

; 259  : 	if (m_pAutoProxy != NULL)

  00003	83 be d0 00 00
	00 00		 cmp	 DWORD PTR [esi+208], 0
  0000a	74 09		 je	 SHORT $LN5@OnClose

; 260  : 	{
; 261  : 		ShowWindow(SW_HIDE);

  0000c	6a 00		 push	 0
  0000e	e8 00 00 00 00	 call	 ?ShowWindow@CWnd@@QAEHH@Z ; CWnd::ShowWindow
$LN2@OnClose:
  00013	5e		 pop	 esi

; 245  : 	}
; 246  : }

  00014	c3		 ret	 0
$LN5@OnClose:

; 238  : 	/*
; 239  : 	if (CanExit())
; 240  : 		CDialogEx::OnClose();
; 241  : 	*/
; 242  : 	if (CanExit() && MessageBox(_T("确实要退出吗？"), _T("提示"), MB_OKCANCEL | MB_ICONWARNING) == IDOK)

  00015	6a 31		 push	 49			; 00000031H
  00017	68 00 00 00 00	 push	 OFFSET ??_C@_15EGCHAEPE@c?Py?3?$AA?$AA@
  0001c	68 00 00 00 00	 push	 OFFSET ??_C@_1BA@LALLHPFH@xn?$FL?$JO?$IJ?$IB?$JA?$AAQ?zT?$BH?$PP?$BP?$AA?$AA@
  00021	e8 00 00 00 00	 call	 ?MessageBoxW@CWnd@@QAEHPB_W0I@Z ; CWnd::MessageBoxW
  00026	83 f8 01	 cmp	 eax, 1
  00029	75 e8		 jne	 SHORT $LN2@OnClose

; 243  : 	{
; 244  : 		CDialog::OnClose();

  0002b	8b ce		 mov	 ecx, esi
  0002d	5e		 pop	 esi
  0002e	e9 00 00 00 00	 jmp	 ?OnClose@CWnd@@IAEXXZ	; CWnd::OnClose
?OnClose@CLLKDlg@@IAEXXZ ENDP				; CLLKDlg::OnClose
_TEXT	ENDS
; Function compile flags: /Ogtp
; File d:\study\数据结构与算法综合实验\连连看游戏\llkpro17.6.18\lianliankan\llkdlg.cpp
; File d:\developer\microsoft visual studio 14.0\vc\atlmfc\include\atltypes.h
; File d:\study\数据结构与算法综合实验\连连看游戏\llkpro17.6.18\lianliankan\llkdlg.cpp
; File d:\developer\microsoft visual studio 14.0\vc\atlmfc\include\atltypes.h
; File d:\study\数据结构与算法综合实验\连连看游戏\llkpro17.6.18\lianliankan\llkdlg.cpp
;	COMDAT ?OnPaint@CLLKDlg@@IAEXXZ
_TEXT	SEGMENT
_dc$ = -116						; size = 84
_rect$ = -32						; size = 16
__$ArrayPad$ = -16					; size = 4
__$EHRec$ = -12						; size = 12
?OnPaint@CLLKDlg@@IAEXXZ PROC				; CLLKDlg::OnPaint, COMDAT
; _this$ = ecx

; 156  : {

  00000	55		 push	 ebp
  00001	8b ec		 mov	 ebp, esp
  00003	6a ff		 push	 -1
  00005	68 00 00 00 00	 push	 __ehhandler$?OnPaint@CLLKDlg@@IAEXXZ
  0000a	64 a1 00 00 00
	00		 mov	 eax, DWORD PTR fs:0
  00010	50		 push	 eax
  00011	83 ec 68	 sub	 esp, 104		; 00000068H
  00014	a1 00 00 00 00	 mov	 eax, DWORD PTR ___security_cookie
  00019	33 c5		 xor	 eax, ebp
  0001b	89 45 f0	 mov	 DWORD PTR __$ArrayPad$[ebp], eax
  0001e	53		 push	 ebx
  0001f	57		 push	 edi
  00020	50		 push	 eax
  00021	8d 45 f4	 lea	 eax, DWORD PTR __$EHRec$[ebp]
  00024	64 a3 00 00 00
	00		 mov	 DWORD PTR fs:0, eax
  0002a	8b d9		 mov	 ebx, ecx
  0002c	6a 54		 push	 84			; 00000054H
  0002e	8d 45 8c	 lea	 eax, DWORD PTR _dc$[ebp]
  00031	6a 00		 push	 0
  00033	50		 push	 eax
  00034	e8 00 00 00 00	 call	 _memset
  00039	83 c4 0c	 add	 esp, 12			; 0000000cH

; 157  : 	CPaintDC dc(this); // 用于绘制的设备上下文

  0003c	8d 4d 8c	 lea	 ecx, DWORD PTR _dc$[ebp]
  0003f	53		 push	 ebx
  00040	e8 00 00 00 00	 call	 ??0CPaintDC@@QAE@PAVCWnd@@@Z ; CPaintDC::CPaintDC

; 158  : 	CRect rect;
; 159  : 	GetClientRect(&rect);

  00045	8d 45 e0	 lea	 eax, DWORD PTR _rect$[ebp]
  00048	c7 45 fc 00 00
	00 00		 mov	 DWORD PTR __$EHRec$[ebp+8], 0
  0004f	c5 f9 ef c0	 vpxor	 xmm0, xmm0, xmm0
  00053	50		 push	 eax
  00054	8b cb		 mov	 ecx, ebx
  00056	c5 fa 7f 45 e0	 vmovdqu XMMWORD PTR _rect$[ebp], xmm0
  0005b	e8 00 00 00 00	 call	 ?GetClientRect@CWnd@@QBEXPAUtagRECT@@@Z ; CWnd::GetClientRect

; 160  : 	if (IsIconic())

  00060	8b cb		 mov	 ecx, ebx
  00062	e8 00 00 00 00	 call	 ?IsIconic@CWnd@@QBEHXZ	; CWnd::IsIconic

; 161  : 	{
; 162  : 		SendMessage(WM_ICONERASEBKGND, reinterpret_cast<WPARAM>(dc.GetSafeHdc()), 0);

  00067	8d 4d 8c	 lea	 ecx, DWORD PTR _dc$[ebp]
  0006a	85 c0		 test	 eax, eax
  0006c	74 53		 je	 SHORT $LN2@OnPaint
  0006e	6a 00		 push	 0
  00070	e8 00 00 00 00	 call	 ?GetSafeHdc@CDC@@QBEPAUHDC__@@XZ ; CDC::GetSafeHdc
  00075	50		 push	 eax
  00076	6a 27		 push	 39			; 00000027H
  00078	8b cb		 mov	 ecx, ebx
  0007a	e8 00 00 00 00	 call	 ?SendMessageW@CWnd@@QBEJIIJ@Z ; CWnd::SendMessageW

; 163  : 
; 164  : 		// 使图标在工作区矩形中居中
; 165  : 		int cxIcon = GetSystemMetrics(SM_CXICON);

  0007f	6a 0b		 push	 11			; 0000000bH
  00081	ff 15 00 00 00
	00		 call	 DWORD PTR __imp__GetSystemMetrics@4

; 166  : 		int cyIcon = GetSystemMetrics(SM_CYICON);

  00087	6a 0c		 push	 12			; 0000000cH
  00089	8b f8		 mov	 edi, eax
  0008b	ff 15 00 00 00
	00		 call	 DWORD PTR __imp__GetSystemMetrics@4

; 167  : 
; 168  : 		int x = (rect.Width() - cxIcon + 1) / 2;
; 169  : 		int y = (rect.Height() - cyIcon + 1) / 2;
; 170  : 
; 171  : 		// 绘制图标
; 172  : 		dc.DrawIcon(x, y, m_hIcon);

  00091	ff b3 d4 00 00
	00		 push	 DWORD PTR [ebx+212]
  00097	8b c8		 mov	 ecx, eax
  00099	8b 45 ec	 mov	 eax, DWORD PTR _rect$[ebp+12]
  0009c	2b 45 e4	 sub	 eax, DWORD PTR _rect$[ebp+4]
  0009f	2b c1		 sub	 eax, ecx
  000a1	8d 4d 8c	 lea	 ecx, DWORD PTR _dc$[ebp]
  000a4	40		 inc	 eax
  000a5	99		 cdq
  000a6	2b c2		 sub	 eax, edx
  000a8	d1 f8		 sar	 eax, 1
  000aa	50		 push	 eax
  000ab	8b 45 e8	 mov	 eax, DWORD PTR _rect$[ebp+8]
  000ae	2b 45 e0	 sub	 eax, DWORD PTR _rect$[ebp]
  000b1	2b c7		 sub	 eax, edi
  000b3	40		 inc	 eax
  000b4	99		 cdq
  000b5	2b c2		 sub	 eax, edx
  000b7	d1 f8		 sar	 eax, 1
  000b9	50		 push	 eax
  000ba	e8 00 00 00 00	 call	 ?DrawIcon@CDC@@QAEHHHPAUHICON__@@@Z ; CDC::DrawIcon

; 173  : 	}
; 174  : 	else

  000bf	eb 2e		 jmp	 SHORT $LN3@OnPaint
$LN2@OnPaint:

; 176  : 		dc.BitBlt(0, 0, rect.Width(), rect.Height(), &m_dcMem, 0, 0, SRCCOPY);   // 绘制背景图片 

  000c1	68 20 00 cc 00	 push	 13369376		; 00cc0020H
  000c6	6a 00		 push	 0
  000c8	6a 00		 push	 0
  000ca	8d 83 d8 00 00
	00		 lea	 eax, DWORD PTR [ebx+216]
  000d0	50		 push	 eax
; File d:\developer\microsoft visual studio 14.0\vc\atlmfc\include\atltypes.h

; 581  : 	return bottom - top;

  000d1	8b 45 ec	 mov	 eax, DWORD PTR _rect$[ebp+12]
  000d4	2b 45 e4	 sub	 eax, DWORD PTR _rect$[ebp+4]
; File d:\study\数据结构与算法综合实验\连连看游戏\llkpro17.6.18\lianliankan\llkdlg.cpp

; 176  : 		dc.BitBlt(0, 0, rect.Width(), rect.Height(), &m_dcMem, 0, 0, SRCCOPY);   // 绘制背景图片 

  000d7	50		 push	 eax
; File d:\developer\microsoft visual studio 14.0\vc\atlmfc\include\atltypes.h

; 576  : 	return right - left;

  000d8	8b 45 e8	 mov	 eax, DWORD PTR _rect$[ebp+8]
  000db	2b 45 e0	 sub	 eax, DWORD PTR _rect$[ebp]
; File d:\study\数据结构与算法综合实验\连连看游戏\llkpro17.6.18\lianliankan\llkdlg.cpp

; 176  : 		dc.BitBlt(0, 0, rect.Width(), rect.Height(), &m_dcMem, 0, 0, SRCCOPY);   // 绘制背景图片 

  000de	50		 push	 eax
  000df	6a 00		 push	 0
  000e1	6a 00		 push	 0
  000e3	e8 00 00 00 00	 call	 ?BitBlt@CDC@@QAEHHHHHPAV1@HHK@Z ; CDC::BitBlt

; 177  : 
; 178  : 		CDialogEx::OnPaint();   //原来自带的父类函数

  000e8	8b cb		 mov	 ecx, ebx
  000ea	e8 00 00 00 00	 call	 ?OnPaint@CDialog@@IAEXXZ ; CDialog::OnPaint
$LN3@OnPaint:

; 179  : 	}
; 180  : }

  000ef	8d 4d 8c	 lea	 ecx, DWORD PTR _dc$[ebp]
  000f2	e8 00 00 00 00	 call	 ??1CPaintDC@@UAE@XZ	; CPaintDC::~CPaintDC
  000f7	8b 4d f4	 mov	 ecx, DWORD PTR __$EHRec$[ebp]
  000fa	64 89 0d 00 00
	00 00		 mov	 DWORD PTR fs:0, ecx
  00101	59		 pop	 ecx
  00102	5f		 pop	 edi
  00103	5b		 pop	 ebx
  00104	8b 4d f0	 mov	 ecx, DWORD PTR __$ArrayPad$[ebp]
  00107	33 cd		 xor	 ecx, ebp
  00109	e8 00 00 00 00	 call	 @__security_check_cookie@4
  0010e	8b e5		 mov	 esp, ebp
  00110	5d		 pop	 ebp
  00111	c3		 ret	 0
_TEXT	ENDS
;	COMDAT text$x
text$x	SEGMENT
__unwindfunclet$?OnPaint@CLLKDlg@@IAEXXZ$0:
  00000	8d 4d 8c	 lea	 ecx, DWORD PTR _dc$[ebp]
  00003	e9 00 00 00 00	 jmp	 ??1CPaintDC@@UAE@XZ	; CPaintDC::~CPaintDC
__ehhandler$?OnPaint@CLLKDlg@@IAEXXZ:
  00008	8b 54 24 08	 mov	 edx, DWORD PTR [esp+8]
  0000c	8d 42 0c	 lea	 eax, DWORD PTR [edx+12]
  0000f	8b 4a 8c	 mov	 ecx, DWORD PTR [edx-116]
  00012	33 c8		 xor	 ecx, eax
  00014	e8 00 00 00 00	 call	 @__security_check_cookie@4
  00019	8b 4a fc	 mov	 ecx, DWORD PTR [edx-4]
  0001c	33 c8		 xor	 ecx, eax
  0001e	e8 00 00 00 00	 call	 @__security_check_cookie@4
  00023	b8 00 00 00 00	 mov	 eax, OFFSET __ehfuncinfo$?OnPaint@CLLKDlg@@IAEXXZ
  00028	e9 00 00 00 00	 jmp	 ___CxxFrameHandler3
text$x	ENDS
?OnPaint@CLLKDlg@@IAEXXZ ENDP				; CLLKDlg::OnPaint
; Function compile flags: /Ogtp
; File d:\study\数据结构与算法综合实验\连连看游戏\llkpro17.6.18\lianliankan\llkdlg.cpp
;	COMDAT ?OnSysCommand@CLLKDlg@@IAEXIJ@Z
_TEXT	SEGMENT
_dlgAbout$2 = -224					; size = 208
__$ArrayPad$ = -16					; size = 4
__$EHRec$ = -12						; size = 12
_nID$ = 8						; size = 4
_lParam$ = 12						; size = 4
?OnSysCommand@CLLKDlg@@IAEXIJ@Z PROC			; CLLKDlg::OnSysCommand, COMDAT
; _this$ = ecx

; 139  : {

  00000	55		 push	 ebp
  00001	8b ec		 mov	 ebp, esp
  00003	6a ff		 push	 -1
  00005	68 00 00 00 00	 push	 __ehhandler$?OnSysCommand@CLLKDlg@@IAEXIJ@Z
  0000a	64 a1 00 00 00
	00		 mov	 eax, DWORD PTR fs:0
  00010	50		 push	 eax
  00011	81 ec d4 00 00
	00		 sub	 esp, 212		; 000000d4H
  00017	a1 00 00 00 00	 mov	 eax, DWORD PTR ___security_cookie
  0001c	33 c5		 xor	 eax, ebp
  0001e	89 45 f0	 mov	 DWORD PTR __$ArrayPad$[ebp], eax
  00021	50		 push	 eax
  00022	8d 45 f4	 lea	 eax, DWORD PTR __$EHRec$[ebp]
  00025	64 a3 00 00 00
	00		 mov	 DWORD PTR fs:0, eax
  0002b	8b d1		 mov	 edx, ecx

; 140  : 	if ((nID & 0xFFF0) == IDM_ABOUTBOX)

  0002d	8b 4d 08	 mov	 ecx, DWORD PTR _nID$[ebp]
  00030	8b c1		 mov	 eax, ecx
  00032	25 f0 ff 00 00	 and	 eax, 65520		; 0000fff0H
  00037	83 f8 10	 cmp	 eax, 16			; 00000010H
  0003a	75 5e		 jne	 SHORT $LN2@OnSysComma
  0003c	68 d0 00 00 00	 push	 208			; 000000d0H
  00041	8d 85 20 ff ff
	ff		 lea	 eax, DWORD PTR _dlgAbout$2[ebp]
  00047	6a 00		 push	 0
  00049	50		 push	 eax
  0004a	e8 00 00 00 00	 call	 _memset
  0004f	83 c4 0c	 add	 esp, 12			; 0000000cH

; 42   : CAboutDlg::CAboutDlg() : CDialogEx(IDD_ABOUTBOX)

  00052	8d 8d 20 ff ff
	ff		 lea	 ecx, DWORD PTR _dlgAbout$2[ebp]
  00058	6a 00		 push	 0
  0005a	6a 64		 push	 100			; 00000064H
  0005c	e8 00 00 00 00	 call	 ??0CDialogEx@@QAE@IPAVCWnd@@@Z ; CDialogEx::CDialogEx

; 43   : {

  00061	c7 85 20 ff ff
	ff 00 00 00 00	 mov	 DWORD PTR _dlgAbout$2[ebp], OFFSET ??_7CAboutDlg@@6B@

; 141  : 	{
; 142  : 		CAboutDlg dlgAbout;
; 143  : 		dlgAbout.DoModal();

  0006b	8d 8d 20 ff ff
	ff		 lea	 ecx, DWORD PTR _dlgAbout$2[ebp]
  00071	c7 45 fc 00 00
	00 00		 mov	 DWORD PTR __$EHRec$[ebp+8], 0
  00078	e8 00 00 00 00	 call	 ?DoModal@CDialog@@UAEHXZ ; CDialog::DoModal
  0007d	8d 4d e0	 lea	 ecx, DWORD PTR _dlgAbout$2[ebp+192]
  00080	e8 00 00 00 00	 call	 ??1CDialogImpl@@MAE@XZ	; CDialogImpl::~CDialogImpl
  00085	8d 4d d4	 lea	 ecx, DWORD PTR _dlgAbout$2[ebp+180]
  00088	e8 00 00 00 00	 call	 ??1CBrush@@UAE@XZ	; CBrush::~CBrush
  0008d	8d 8d 20 ff ff
	ff		 lea	 ecx, DWORD PTR _dlgAbout$2[ebp]
  00093	e8 00 00 00 00	 call	 ??1CDialog@@UAE@XZ	; CDialog::~CDialog

; 144  : 	}
; 145  : 	else

  00098	eb 0b		 jmp	 SHORT $LN3@OnSysComma
$LN2@OnSysComma:

; 146  : 	{
; 147  : 		CDialogEx::OnSysCommand(nID, lParam);

  0009a	ff 75 0c	 push	 DWORD PTR _lParam$[ebp]
  0009d	51		 push	 ecx
  0009e	8b ca		 mov	 ecx, edx
  000a0	e8 00 00 00 00	 call	 ?OnSysCommand@CWnd@@IAEXIJ@Z ; CWnd::OnSysCommand
$LN3@OnSysComma:

; 148  : 	}
; 149  : }

  000a5	8b 4d f4	 mov	 ecx, DWORD PTR __$EHRec$[ebp]
  000a8	64 89 0d 00 00
	00 00		 mov	 DWORD PTR fs:0, ecx
  000af	59		 pop	 ecx
  000b0	8b 4d f0	 mov	 ecx, DWORD PTR __$ArrayPad$[ebp]
  000b3	33 cd		 xor	 ecx, ebp
  000b5	e8 00 00 00 00	 call	 @__security_check_cookie@4
  000ba	8b e5		 mov	 esp, ebp
  000bc	5d		 pop	 ebp
  000bd	c2 08 00	 ret	 8
_TEXT	ENDS
;	COMDAT text$x
text$x	SEGMENT
__unwindfunclet$?OnSysCommand@CLLKDlg@@IAEXIJ@Z$0:
  00000	8d 8d 20 ff ff
	ff		 lea	 ecx, DWORD PTR _dlgAbout$2[ebp]
  00006	e9 00 00 00 00	 jmp	 ??1CAboutDlg@@UAE@XZ
__ehhandler$?OnSysCommand@CLLKDlg@@IAEXIJ@Z:
  0000b	8b 54 24 08	 mov	 edx, DWORD PTR [esp+8]
  0000f	8d 42 0c	 lea	 eax, DWORD PTR [edx+12]
  00012	8b 8a 28 ff ff
	ff		 mov	 ecx, DWORD PTR [edx-216]
  00018	33 c8		 xor	 ecx, eax
  0001a	e8 00 00 00 00	 call	 @__security_check_cookie@4
  0001f	8b 4a fc	 mov	 ecx, DWORD PTR [edx-4]
  00022	33 c8		 xor	 ecx, eax
  00024	e8 00 00 00 00	 call	 @__security_check_cookie@4
  00029	b8 00 00 00 00	 mov	 eax, OFFSET __ehfuncinfo$?OnSysCommand@CLLKDlg@@IAEXIJ@Z
  0002e	e9 00 00 00 00	 jmp	 ___CxxFrameHandler3
text$x	ENDS
?OnSysCommand@CLLKDlg@@IAEXIJ@Z ENDP			; CLLKDlg::OnSysCommand
; Function compile flags: /Ogtp
; File d:\study\数据结构与算法综合实验\连连看游戏\llkpro17.6.18\lianliankan\llkdlg.cpp
; File d:\developer\microsoft visual studio 14.0\vc\atlmfc\include\afx.h
; File d:\study\数据结构与算法综合实验\连连看游戏\llkpro17.6.18\lianliankan\llkdlg.cpp
; File d:\developer\microsoft visual studio 14.0\vc\atlmfc\include\afx.h
; File d:\study\数据结构与算法综合实验\连连看游戏\llkpro17.6.18\lianliankan\llkdlg.cpp
;	COMDAT ?OnInitDialog@CLLKDlg@@MAEHXZ
_TEXT	SEGMENT
_pSysMenu$1$ = -52					; size = 4
_msg$2 = -48						; size = 28
_strAboutMenu$3 = -20					; size = 4
__$ArrayPad$ = -16					; size = 4
__$EHRec$ = -12						; size = 12
?OnInitDialog@CLLKDlg@@MAEHXZ PROC			; CLLKDlg::OnInitDialog, COMDAT
; _this$ = ecx

; 105  : {

  00000	55		 push	 ebp
  00001	8b ec		 mov	 ebp, esp
  00003	6a ff		 push	 -1
  00005	68 00 00 00 00	 push	 __ehhandler$?OnInitDialog@CLLKDlg@@MAEHXZ
  0000a	64 a1 00 00 00
	00		 mov	 eax, DWORD PTR fs:0
  00010	50		 push	 eax
  00011	83 ec 28	 sub	 esp, 40			; 00000028H
  00014	a1 00 00 00 00	 mov	 eax, DWORD PTR ___security_cookie
  00019	33 c5		 xor	 eax, ebp
  0001b	89 45 f0	 mov	 DWORD PTR __$ArrayPad$[ebp], eax
  0001e	53		 push	 ebx
  0001f	56		 push	 esi
  00020	57		 push	 edi
  00021	50		 push	 eax
  00022	8d 45 f4	 lea	 eax, DWORD PTR __$EHRec$[ebp]
  00025	64 a3 00 00 00
	00		 mov	 DWORD PTR fs:0, eax
  0002b	8b d9		 mov	 ebx, ecx

; 106  : 	CDialogEx::OnInitDialog();

  0002d	e8 00 00 00 00	 call	 ?OnInitDialog@CDialog@@UAEHXZ ; CDialog::OnInitDialog

; 107  : 
; 108  : 	// 将“关于...”菜单项添加到系统菜单中。
; 109  : 	// IDM_ABOUTBOX 必须在系统命令范围内。
; 110  : 	ASSERT((IDM_ABOUTBOX & 0xFFF0) == IDM_ABOUTBOX);
; 111  : 	ASSERT(IDM_ABOUTBOX < 0xF000);
; 112  : 
; 113  : 	CMenu* pSysMenu = GetSystemMenu(FALSE);

  00032	6a 00		 push	 0
  00034	8b cb		 mov	 ecx, ebx
  00036	e8 00 00 00 00	 call	 ?GetSystemMenu@CWnd@@QBEPAVCMenu@@H@Z ; CWnd::GetSystemMenu
  0003b	8b f0		 mov	 esi, eax
  0003d	89 75 cc	 mov	 DWORD PTR _pSysMenu$1$[ebp], esi

; 114  : 	if (pSysMenu != NULL)

  00040	85 f6		 test	 esi, esi
  00042	0f 84 a9 00 00
	00		 je	 $LN2@OnInitDial

; 115  : 	{
; 116  : 		BOOL bNameValid;
; 117  : 		CString strAboutMenu;

  00048	8d 4d ec	 lea	 ecx, DWORD PTR _strAboutMenu$3[ebp]
  0004b	ff 15 00 00 00
	00		 call	 DWORD PTR __imp_??0?$CStringT@_WV?$StrTraitMFC_DLL@_WV?$ChTraitsCRT@_W@ATL@@@@@ATL@@QAE@XZ

; 118  : 		bNameValid = strAboutMenu.LoadString(IDS_ABOUTBOX);

  00051	6a 65		 push	 101			; 00000065H
  00053	8d 4d ec	 lea	 ecx, DWORD PTR _strAboutMenu$3[ebp]
  00056	c7 45 fc 00 00
	00 00		 mov	 DWORD PTR __$EHRec$[ebp+8], 0
  0005d	ff 15 00 00 00
	00		 call	 DWORD PTR __imp_?LoadStringW@?$CStringT@_WV?$StrTraitMFC_DLL@_WV?$ChTraitsCRT@_W@ATL@@@@@ATL@@QAEHI@Z

; 119  : 		ASSERT(bNameValid);

  00063	85 c0		 test	 eax, eax
  00065	75 48		 jne	 SHORT $LN5@OnInitDial
  00067	8b 3d 00 00 00
	00		 mov	 edi, DWORD PTR ?__LINE__Var@?0??OnInitDialog@CLLKDlg@@MAEHXZ@4JA
; File d:\developer\microsoft visual studio 14.0\vc\atlmfc\include\afx.h

; 332  : 	BOOL bQuit = PeekMessage(&msg, NULL, WM_QUIT, WM_QUIT, PM_REMOVE);

  0006d	6a 01		 push	 1
  0006f	6a 12		 push	 18			; 00000012H
  00071	6a 12		 push	 18			; 00000012H
  00073	50		 push	 eax
  00074	8d 45 d0	 lea	 eax, DWORD PTR _msg$2[ebp]
; File d:\study\数据结构与算法综合实验\连连看游戏\llkpro17.6.18\lianliankan\llkdlg.cpp

; 119  : 		ASSERT(bNameValid);

  00077	83 c7 0e	 add	 edi, 14			; 0000000eH
; File d:\developer\microsoft visual studio 14.0\vc\atlmfc\include\afx.h

; 332  : 	BOOL bQuit = PeekMessage(&msg, NULL, WM_QUIT, WM_QUIT, PM_REMOVE);

  0007a	50		 push	 eax
  0007b	ff 15 00 00 00
	00		 call	 DWORD PTR __imp__PeekMessageW@20

; 333  : 	BOOL bResult = _CrtDbgReport(_CRT_ASSERT, lpszFileName, nLine, NULL, NULL);

  00081	6a 00		 push	 0
  00083	6a 00		 push	 0
  00085	57		 push	 edi
  00086	68 00 00 00 00	 push	 OFFSET ??_C@_0FA@JCGMDLPD@d?3?2study?2?J?$PN?$LO?$NN?$LN?a?$LJ?$LJ?S?k?K?c?$LH?$KI?W?$NL?$LK?O?J?$LF?Q?i?2@
  0008b	6a 02		 push	 2
  0008d	8b f0		 mov	 esi, eax
  0008f	ff 15 00 00 00
	00		 call	 DWORD PTR __imp___CrtDbgReport
  00095	83 c4 14	 add	 esp, 20			; 00000014H
  00098	8b f8		 mov	 edi, eax

; 334  : 	if (bQuit)

  0009a	85 f6		 test	 esi, esi
  0009c	74 09		 je	 SHORT $LN8@OnInitDial

; 335  : 		PostQuitMessage((int)msg.wParam);

  0009e	ff 75 d8	 push	 DWORD PTR _msg$2[ebp+8]
  000a1	ff 15 00 00 00
	00		 call	 DWORD PTR __imp__PostQuitMessage@4
$LN8@OnInitDial:
; File d:\study\数据结构与算法综合实验\连连看游戏\llkpro17.6.18\lianliankan\llkdlg.cpp

; 119  : 		ASSERT(bNameValid);

  000a7	85 ff		 test	 edi, edi
  000a9	74 01		 je	 SHORT $LN10@OnInitDial
  000ab	cc		 int	 3
$LN10@OnInitDial:
  000ac	8b 75 cc	 mov	 esi, DWORD PTR _pSysMenu$1$[ebp]
$LN5@OnInitDial:

; 120  : 		if (!strAboutMenu.IsEmpty())

  000af	8d 4d ec	 lea	 ecx, DWORD PTR _strAboutMenu$3[ebp]
  000b2	ff 15 00 00 00
	00		 call	 DWORD PTR __imp_?IsEmpty@?$CSimpleStringT@_W$00@ATL@@QBE_NXZ
  000b8	84 c0		 test	 al, al
  000ba	75 25		 jne	 SHORT $LN3@OnInitDial

; 121  : 		{
; 122  : 			pSysMenu->AppendMenu(MF_SEPARATOR);

  000bc	6a 00		 push	 0
  000be	6a 00		 push	 0
  000c0	68 00 08 00 00	 push	 2048			; 00000800H
  000c5	8b ce		 mov	 ecx, esi
  000c7	e8 00 00 00 00	 call	 ?AppendMenuW@CMenu@@QAEHIIPB_W@Z ; CMenu::AppendMenuW

; 123  : 			pSysMenu->AppendMenu(MF_STRING, IDM_ABOUTBOX, strAboutMenu);

  000cc	8d 4d ec	 lea	 ecx, DWORD PTR _strAboutMenu$3[ebp]
  000cf	ff 15 00 00 00
	00		 call	 DWORD PTR __imp_??B?$CSimpleStringT@_W$00@ATL@@QBEPB_WXZ
  000d5	50		 push	 eax
  000d6	6a 10		 push	 16			; 00000010H
  000d8	6a 00		 push	 0
  000da	8b ce		 mov	 ecx, esi
  000dc	e8 00 00 00 00	 call	 ?AppendMenuW@CMenu@@QAEHIIPB_W@Z ; CMenu::AppendMenuW
$LN3@OnInitDial:

; 124  : 		}
; 125  : 	}

  000e1	8d 4d ec	 lea	 ecx, DWORD PTR _strAboutMenu$3[ebp]
  000e4	c7 45 fc ff ff
	ff ff		 mov	 DWORD PTR __$EHRec$[ebp+8], -1
  000eb	ff 15 00 00 00
	00		 call	 DWORD PTR __imp_??1?$CStringT@_WV?$StrTraitMFC_DLL@_WV?$ChTraitsCRT@_W@ATL@@@@@ATL@@QAE@XZ
$LN2@OnInitDial:

; 126  : 
; 127  : 	// 设置此对话框的图标。  当应用程序主窗口不是对话框时，框架将自动
; 128  : 	//  执行此操作
; 129  : 	SetIcon(m_hIcon, TRUE);			// 设置大图标

  000f1	6a 01		 push	 1
  000f3	ff b3 d4 00 00
	00		 push	 DWORD PTR [ebx+212]
  000f9	8b cb		 mov	 ecx, ebx
  000fb	e8 00 00 00 00	 call	 ?SetIcon@CWnd@@QAEPAUHICON__@@PAU2@H@Z ; CWnd::SetIcon

; 130  : 	SetIcon(m_hIcon, FALSE);		// 设置小图标

  00100	6a 00		 push	 0
  00102	ff b3 d4 00 00
	00		 push	 DWORD PTR [ebx+212]
  00108	8b cb		 mov	 ecx, ebx
  0010a	e8 00 00 00 00	 call	 ?SetIcon@CWnd@@QAEPAUHICON__@@PAU2@H@Z ; CWnd::SetIcon

; 131  : 
; 132  : 	// TODO: 在此添加额外的初始化代码
; 133  : 	InitBackground();       //加载背景图

  0010f	8b cb		 mov	 ecx, ebx
  00111	e8 00 00 00 00	 call	 ?InitBackground@CLLKDlg@@AAEXXZ ; CLLKDlg::InitBackground

; 134  : 
; 135  : 	return TRUE;  // 除非将焦点设置到控件，否则返回 TRUE

  00116	b8 01 00 00 00	 mov	 eax, 1

; 136  : }

  0011b	8b 4d f4	 mov	 ecx, DWORD PTR __$EHRec$[ebp]
  0011e	64 89 0d 00 00
	00 00		 mov	 DWORD PTR fs:0, ecx
  00125	59		 pop	 ecx
  00126	5f		 pop	 edi
  00127	5e		 pop	 esi
  00128	5b		 pop	 ebx
  00129	8b 4d f0	 mov	 ecx, DWORD PTR __$ArrayPad$[ebp]
  0012c	33 cd		 xor	 ecx, ebp
  0012e	e8 00 00 00 00	 call	 @__security_check_cookie@4
  00133	8b e5		 mov	 esp, ebp
  00135	5d		 pop	 ebp
  00136	c3		 ret	 0
_TEXT	ENDS
;	COMDAT text$x
text$x	SEGMENT
__unwindfunclet$?OnInitDialog@CLLKDlg@@MAEHXZ$0:
  00000	8d 4d ec	 lea	 ecx, DWORD PTR _strAboutMenu$3[ebp]
  00003	ff 25 00 00 00
	00		 jmp	 DWORD PTR __imp_??1?$CStringT@_WV?$StrTraitMFC_DLL@_WV?$ChTraitsCRT@_W@ATL@@@@@ATL@@QAE@XZ
__ehhandler$?OnInitDialog@CLLKDlg@@MAEHXZ:
  00009	8b 54 24 08	 mov	 edx, DWORD PTR [esp+8]
  0000d	8d 42 0c	 lea	 eax, DWORD PTR [edx+12]
  00010	8b 4a c8	 mov	 ecx, DWORD PTR [edx-56]
  00013	33 c8		 xor	 ecx, eax
  00015	e8 00 00 00 00	 call	 @__security_check_cookie@4
  0001a	8b 4a fc	 mov	 ecx, DWORD PTR [edx-4]
  0001d	33 c8		 xor	 ecx, eax
  0001f	e8 00 00 00 00	 call	 @__security_check_cookie@4
  00024	b8 00 00 00 00	 mov	 eax, OFFSET __ehfuncinfo$?OnInitDialog@CLLKDlg@@MAEHXZ
  00029	e9 00 00 00 00	 jmp	 ___CxxFrameHandler3
text$x	ENDS
?OnInitDialog@CLLKDlg@@MAEHXZ ENDP			; CLLKDlg::OnInitDialog
; Function compile flags: /Ogtp
; File d:\study\数据结构与算法综合实验\连连看游戏\llkpro17.6.18\lianliankan\llkdlg.cpp
;	COMDAT ?CanExit@CLLKDlg@@IAEHXZ
_TEXT	SEGMENT
?CanExit@CLLKDlg@@IAEHXZ PROC				; CLLKDlg::CanExit, COMDAT
; _this$ = ecx

; 256  : 	// 如果代理对象仍保留在那里，则自动化
; 257  : 	//  控制器仍会保持此应用程序。
; 258  : 	//  使对话框保留在那里，但将其 UI 隐藏起来。
; 259  : 	if (m_pAutoProxy != NULL)

  00000	83 b9 d0 00 00
	00 00		 cmp	 DWORD PTR [ecx+208], 0
  00007	74 0a		 je	 SHORT $LN2@CanExit

; 260  : 	{
; 261  : 		ShowWindow(SW_HIDE);

  00009	6a 00		 push	 0
  0000b	e8 00 00 00 00	 call	 ?ShowWindow@CWnd@@QAEHH@Z ; CWnd::ShowWindow

; 262  : 		return FALSE;

  00010	33 c0		 xor	 eax, eax

; 266  : }

  00012	c3		 ret	 0
$LN2@CanExit:

; 263  : 	}
; 264  : 
; 265  : 	return TRUE;

  00013	b8 01 00 00 00	 mov	 eax, 1

; 266  : }

  00018	c3		 ret	 0
?CanExit@CLLKDlg@@IAEHXZ ENDP				; CLLKDlg::CanExit
_TEXT	ENDS
; Function compile flags: /Ogtp
; File d:\study\数据结构与算法综合实验\连连看游戏\llkpro17.6.18\lianliankan\llkdlg.cpp
;	COMDAT ?OnQueryDragIcon@CLLKDlg@@IAEPAUHICON__@@XZ
_TEXT	SEGMENT
?OnQueryDragIcon@CLLKDlg@@IAEPAUHICON__@@XZ PROC	; CLLKDlg::OnQueryDragIcon, COMDAT
; _this$ = ecx

; 227  : 	return static_cast<HCURSOR>(m_hIcon);

  00000	8b 81 d4 00 00
	00		 mov	 eax, DWORD PTR [ecx+212]

; 228  : }

  00006	c3		 ret	 0
?OnQueryDragIcon@CLLKDlg@@IAEPAUHICON__@@XZ ENDP	; CLLKDlg::OnQueryDragIcon
_TEXT	ENDS
; Function compile flags: /Ogtp
; File d:\study\数据结构与算法综合实验\连连看游戏\llkpro17.6.18\lianliankan\llkdlg.cpp
;	COMDAT ?DoDataExchange@CLLKDlg@@MAEXPAVCDataExchange@@@Z
_TEXT	SEGMENT
_pDX$ = 8						; size = 4
?DoDataExchange@CLLKDlg@@MAEXPAVCDataExchange@@@Z PROC	; CLLKDlg::DoDataExchange, COMDAT
; _this$ = ecx

; 83   : {

  00000	55		 push	 ebp
  00001	8b ec		 mov	 ebp, esp

; 85   : }

  00003	5d		 pop	 ebp

; 84   : 	CDialogEx::DoDataExchange(pDX);

  00004	e9 00 00 00 00	 jmp	 ?DoDataExchange@CWnd@@MAEXPAVCDataExchange@@@Z ; CWnd::DoDataExchange
?DoDataExchange@CLLKDlg@@MAEXPAVCDataExchange@@@Z ENDP	; CLLKDlg::DoDataExchange
_TEXT	ENDS
; Function compile flags: /Ogtp
; File d:\study\数据结构与算法综合实验\连连看游戏\llkpro17.6.18\lianliankan\llkdlg.cpp
;	COMDAT ??1CLLKDlg@@UAE@XZ
_TEXT	SEGMENT
??1CLLKDlg@@UAE@XZ PROC					; CLLKDlg::~CLLKDlg, COMDAT
; _this$ = ecx

; 68   : {

  00000	56		 push	 esi
  00001	8b f1		 mov	 esi, ecx

; 69   : 	// 如果该对话框有自动化代理，则
; 70   : 	//  将此代理指向该对话框的后向指针设置为 NULL，以便
; 71   : 	//  此代理知道该对话框已被删除。
; 72   : 	if (m_pAutoProxy != NULL)

  00003	8b 86 d0 00 00
	00		 mov	 eax, DWORD PTR [esi+208]
  00009	c7 06 00 00 00
	00		 mov	 DWORD PTR [esi], OFFSET ??_7CLLKDlg@@6B@
  0000f	85 c0		 test	 eax, eax
  00011	74 07		 je	 SHORT $LN2@CLLKDlg

; 73   : 		m_pAutoProxy->m_pDialog = NULL;

  00013	c7 40 20 00 00
	00 00		 mov	 DWORD PTR [eax+32], 0
$LN2@CLLKDlg:

; 74   : 	// 如果非模态对话框已经创建则删除它   
; 75   : 	if (!m_pGameDlg)
; 76   : 	{
; 77   : 		// 删除非模态对话框对象   
; 78   : 		delete m_pGameDlg;
; 79   : 	}
; 80   : }

  0001a	8d 8e d8 00 00
	00		 lea	 ecx, DWORD PTR [esi+216]
  00020	e8 00 00 00 00	 call	 ??1CDC@@UAE@XZ		; CDC::~CDC
  00025	8d 8e c0 00 00
	00		 lea	 ecx, DWORD PTR [esi+192]
  0002b	e8 00 00 00 00	 call	 ??1CDialogImpl@@MAE@XZ	; CDialogImpl::~CDialogImpl
  00030	8d 8e b4 00 00
	00		 lea	 ecx, DWORD PTR [esi+180]
  00036	e8 00 00 00 00	 call	 ??1CBrush@@UAE@XZ	; CBrush::~CBrush
  0003b	8b ce		 mov	 ecx, esi
  0003d	5e		 pop	 esi
  0003e	e9 00 00 00 00	 jmp	 ??1CDialog@@UAE@XZ	; CDialog::~CDialog
??1CLLKDlg@@UAE@XZ ENDP					; CLLKDlg::~CLLKDlg
_TEXT	ENDS
; Function compile flags: /Ogtp
; File d:\study\数据结构与算法综合实验\连连看游戏\llkpro17.6.18\lianliankan\llkdlg.cpp
;	COMDAT ??0CLLKDlg@@QAE@PAVCWnd@@@Z
_TEXT	SEGMENT
_this$ = -16						; size = 4
__$EHRec$ = -12						; size = 12
_pParent$ = 8						; size = 4
??0CLLKDlg@@QAE@PAVCWnd@@@Z PROC			; CLLKDlg::CLLKDlg, COMDAT
; _this$ = ecx

; 61   : {

  00000	55		 push	 ebp
  00001	8b ec		 mov	 ebp, esp
  00003	6a ff		 push	 -1
  00005	68 00 00 00 00	 push	 __ehhandler$??0CLLKDlg@@QAE@PAVCWnd@@@Z
  0000a	64 a1 00 00 00
	00		 mov	 eax, DWORD PTR fs:0
  00010	50		 push	 eax
  00011	51		 push	 ecx
  00012	56		 push	 esi
  00013	a1 00 00 00 00	 mov	 eax, DWORD PTR ___security_cookie
  00018	33 c5		 xor	 eax, ebp
  0001a	50		 push	 eax
  0001b	8d 45 f4	 lea	 eax, DWORD PTR __$EHRec$[ebp]
  0001e	64 a3 00 00 00
	00		 mov	 DWORD PTR fs:0, eax
  00024	8b f1		 mov	 esi, ecx
  00026	89 75 f0	 mov	 DWORD PTR _this$[ebp], esi

; 60   : 	: CDialogEx(IDD_LIANLIANKAN_DIALOG, pParent)

  00029	ff 75 08	 push	 DWORD PTR _pParent$[ebp]
  0002c	6a 66		 push	 102			; 00000066H
  0002e	e8 00 00 00 00	 call	 ??0CDialogEx@@QAE@IPAVCWnd@@@Z ; CDialogEx::CDialogEx

; 61   : {

  00033	8d 8e d8 00 00
	00		 lea	 ecx, DWORD PTR [esi+216]
  00039	c7 45 fc 00 00
	00 00		 mov	 DWORD PTR __$EHRec$[ebp+8], 0
  00040	c7 06 00 00 00
	00		 mov	 DWORD PTR [esi], OFFSET ??_7CLLKDlg@@6B@
  00046	e8 00 00 00 00	 call	 ??0CDC@@QAE@XZ		; CDC::CDC

; 62   : 	m_hIcon = AfxGetApp()->LoadIcon(IDI_APP_ICON);

  0004b	6a 7f		 push	 127			; 0000007fH
  0004d	c6 45 fc 01	 mov	 BYTE PTR __$EHRec$[ebp+8], 1
  00051	e8 00 00 00 00	 call	 ?AfxGetApp@@YGPAVCWinApp@@XZ ; AfxGetApp
  00056	8b c8		 mov	 ecx, eax
  00058	e8 00 00 00 00	 call	 ?LoadIconW@CWinApp@@QBEPAUHICON__@@I@Z ; CWinApp::LoadIconW
  0005d	89 86 d4 00 00
	00		 mov	 DWORD PTR [esi+212], eax

; 63   : 	m_pAutoProxy = NULL;
; 64   : 
; 65   : }

  00063	8b c6		 mov	 eax, esi
  00065	c7 86 d0 00 00
	00 00 00 00 00	 mov	 DWORD PTR [esi+208], 0
  0006f	8b 4d f4	 mov	 ecx, DWORD PTR __$EHRec$[ebp]
  00072	64 89 0d 00 00
	00 00		 mov	 DWORD PTR fs:0, ecx
  00079	59		 pop	 ecx
  0007a	5e		 pop	 esi
  0007b	8b e5		 mov	 esp, ebp
  0007d	5d		 pop	 ebp
  0007e	c2 04 00	 ret	 4
_TEXT	ENDS
;	COMDAT text$x
text$x	SEGMENT
__unwindfunclet$??0CLLKDlg@@QAE@PAVCWnd@@@Z$0:
  00000	8b 4d f0	 mov	 ecx, DWORD PTR _this$[ebp]
  00003	e9 00 00 00 00	 jmp	 ??1CDialogEx@@UAE@XZ
__unwindfunclet$??0CLLKDlg@@QAE@PAVCWnd@@@Z$1:
  00008	8b 4d f0	 mov	 ecx, DWORD PTR _this$[ebp]
  0000b	81 c1 d8 00 00
	00		 add	 ecx, 216		; 000000d8H
  00011	e9 00 00 00 00	 jmp	 ??1CDC@@UAE@XZ		; CDC::~CDC
__ehhandler$??0CLLKDlg@@QAE@PAVCWnd@@@Z:
  00016	8b 54 24 08	 mov	 edx, DWORD PTR [esp+8]
  0001a	8d 42 0c	 lea	 eax, DWORD PTR [edx+12]
  0001d	8b 4a f4	 mov	 ecx, DWORD PTR [edx-12]
  00020	33 c8		 xor	 ecx, eax
  00022	e8 00 00 00 00	 call	 @__security_check_cookie@4
  00027	b8 00 00 00 00	 mov	 eax, OFFSET __ehfuncinfo$??0CLLKDlg@@QAE@PAVCWnd@@@Z
  0002c	e9 00 00 00 00	 jmp	 ___CxxFrameHandler3
text$x	ENDS
??0CLLKDlg@@QAE@PAVCWnd@@@Z ENDP			; CLLKDlg::CLLKDlg
; Function compile flags: /Ogtp
; File d:\study\数据结构与算法综合实验\连连看游戏\llkpro17.6.18\lianliankan\llkdlg.cpp
;	COMDAT ?GetRuntimeClass@CLLKDlg@@UBEPAUCRuntimeClass@@XZ
_TEXT	SEGMENT
?GetRuntimeClass@CLLKDlg@@UBEPAUCRuntimeClass@@XZ PROC	; CLLKDlg::GetRuntimeClass, COMDAT
; _this$ = ecx

; 57   : IMPLEMENT_DYNAMIC(CLLKDlg, CDialogEx);

  00000	b8 00 00 00 00	 mov	 eax, OFFSET ?classCLLKDlg@CLLKDlg@@2UCRuntimeClass@@B ; CLLKDlg::classCLLKDlg
  00005	c3		 ret	 0
?GetRuntimeClass@CLLKDlg@@UBEPAUCRuntimeClass@@XZ ENDP	; CLLKDlg::GetRuntimeClass
_TEXT	ENDS
; Function compile flags: /Ogtp
; File d:\study\数据结构与算法综合实验\连连看游戏\llkpro17.6.18\lianliankan\llkdlg.cpp
;	COMDAT ?GetThisClass@CLLKDlg@@SGPAUCRuntimeClass@@XZ
_TEXT	SEGMENT
?GetThisClass@CLLKDlg@@SGPAUCRuntimeClass@@XZ PROC	; CLLKDlg::GetThisClass, COMDAT

; 57   : IMPLEMENT_DYNAMIC(CLLKDlg, CDialogEx);

  00000	b8 00 00 00 00	 mov	 eax, OFFSET ?classCLLKDlg@CLLKDlg@@2UCRuntimeClass@@B ; CLLKDlg::classCLLKDlg
  00005	c3		 ret	 0
?GetThisClass@CLLKDlg@@SGPAUCRuntimeClass@@XZ ENDP	; CLLKDlg::GetThisClass
_TEXT	ENDS
; Function compile flags: /Ogtp
; File d:\study\数据结构与算法综合实验\连连看游戏\llkpro17.6.18\lianliankan\llkdlg.cpp
;	COMDAT ?_GetBaseClass@CLLKDlg@@KGPAUCRuntimeClass@@XZ
_TEXT	SEGMENT
?_GetBaseClass@CLLKDlg@@KGPAUCRuntimeClass@@XZ PROC	; CLLKDlg::_GetBaseClass, COMDAT

; 57   : IMPLEMENT_DYNAMIC(CLLKDlg, CDialogEx);

  00000	e9 00 00 00 00	 jmp	 ?GetThisClass@CDialogEx@@SGPAUCRuntimeClass@@XZ ; CDialogEx::GetThisClass
?_GetBaseClass@CLLKDlg@@KGPAUCRuntimeClass@@XZ ENDP	; CLLKDlg::_GetBaseClass
_TEXT	ENDS
; Function compile flags: /Ogtp
;	COMDAT ?__autoclassinit2@CGameHelp@@QAEXI@Z
_TEXT	SEGMENT
_classSize$ = 8						; size = 4
?__autoclassinit2@CGameHelp@@QAEXI@Z PROC		; CGameHelp::__autoclassinit2, COMDAT
; _this$ = ecx
  00000	55		 push	 ebp
  00001	8b ec		 mov	 ebp, esp
  00003	ff 75 08	 push	 DWORD PTR _classSize$[ebp]
  00006	6a 00		 push	 0
  00008	51		 push	 ecx
  00009	e8 00 00 00 00	 call	 _memset
  0000e	83 c4 0c	 add	 esp, 12			; 0000000cH
  00011	5d		 pop	 ebp
  00012	c2 04 00	 ret	 4
?__autoclassinit2@CGameHelp@@QAEXI@Z ENDP		; CGameHelp::__autoclassinit2
_TEXT	ENDS
; Function compile flags: /Ogtp
;	COMDAT ??1CDialogEx@@UAE@XZ
_TEXT	SEGMENT
??1CDialogEx@@UAE@XZ PROC				; CDialogEx::~CDialogEx, COMDAT
; _this$ = ecx
  00000	56		 push	 esi
  00001	8b f1		 mov	 esi, ecx
  00003	8d 8e c0 00 00
	00		 lea	 ecx, DWORD PTR [esi+192]
  00009	e8 00 00 00 00	 call	 ??1CDialogImpl@@MAE@XZ	; CDialogImpl::~CDialogImpl
  0000e	8d 8e b4 00 00
	00		 lea	 ecx, DWORD PTR [esi+180]
  00014	e8 00 00 00 00	 call	 ??1CBrush@@UAE@XZ	; CBrush::~CBrush
  00019	8b ce		 mov	 ecx, esi
  0001b	5e		 pop	 esi
  0001c	e9 00 00 00 00	 jmp	 ??1CDialog@@UAE@XZ	; CDialog::~CDialog
??1CDialogEx@@UAE@XZ ENDP				; CDialogEx::~CDialogEx
_TEXT	ENDS
; Function compile flags: /Ogtp
;	COMDAT ?__autoclassinit2@CClientDC@@QAEXI@Z
_TEXT	SEGMENT
_classSize$ = 8						; size = 4
?__autoclassinit2@CClientDC@@QAEXI@Z PROC		; CClientDC::__autoclassinit2, COMDAT
; _this$ = ecx
  00000	55		 push	 ebp
  00001	8b ec		 mov	 ebp, esp
  00003	ff 75 08	 push	 DWORD PTR _classSize$[ebp]
  00006	6a 00		 push	 0
  00008	51		 push	 ecx
  00009	e8 00 00 00 00	 call	 _memset
  0000e	83 c4 0c	 add	 esp, 12			; 0000000cH
  00011	5d		 pop	 ebp
  00012	c2 04 00	 ret	 4
?__autoclassinit2@CClientDC@@QAEXI@Z ENDP		; CClientDC::__autoclassinit2
_TEXT	ENDS
; Function compile flags: /Ogtp
;	COMDAT ?__autoclassinit2@CPaintDC@@QAEXI@Z
_TEXT	SEGMENT
_classSize$ = 8						; size = 4
?__autoclassinit2@CPaintDC@@QAEXI@Z PROC		; CPaintDC::__autoclassinit2, COMDAT
; _this$ = ecx
  00000	55		 push	 ebp
  00001	8b ec		 mov	 ebp, esp
  00003	ff 75 08	 push	 DWORD PTR _classSize$[ebp]
  00006	6a 00		 push	 0
  00008	51		 push	 ecx
  00009	e8 00 00 00 00	 call	 _memset
  0000e	83 c4 0c	 add	 esp, 12			; 0000000cH
  00011	5d		 pop	 ebp
  00012	c2 04 00	 ret	 4
?__autoclassinit2@CPaintDC@@QAEXI@Z ENDP		; CPaintDC::__autoclassinit2
_TEXT	ENDS
; Function compile flags: /Ogtp
;	COMDAT ?__autoclassinit2@CBitmap@@QAEXI@Z
_TEXT	SEGMENT
_classSize$ = 8						; size = 4
?__autoclassinit2@CBitmap@@QAEXI@Z PROC			; CBitmap::__autoclassinit2, COMDAT
; _this$ = ecx
  00000	55		 push	 ebp
  00001	8b ec		 mov	 ebp, esp
  00003	ff 75 08	 push	 DWORD PTR _classSize$[ebp]
  00006	6a 00		 push	 0
  00008	51		 push	 ecx
  00009	e8 00 00 00 00	 call	 _memset
  0000e	83 c4 0c	 add	 esp, 12			; 0000000cH
  00011	5d		 pop	 ebp
  00012	c2 04 00	 ret	 4
?__autoclassinit2@CBitmap@@QAEXI@Z ENDP			; CBitmap::__autoclassinit2
_TEXT	ENDS
; Function compile flags: /Ogtp
; File d:\developer\microsoft visual studio 14.0\vc\atlmfc\include\atltypes.h
;	COMDAT ??BCRect@@QAEPAUtagRECT@@XZ
_TEXT	SEGMENT
??BCRect@@QAEPAUtagRECT@@XZ PROC			; CRect::operator tagRECT *, COMDAT
; _this$ = ecx

; 628  : 	return this;

  00000	8b c1		 mov	 eax, ecx

; 629  : }

  00002	c3		 ret	 0
??BCRect@@QAEPAUtagRECT@@XZ ENDP			; CRect::operator tagRECT *
_TEXT	ENDS
; Function compile flags: /Ogtp
; File d:\developer\microsoft visual studio 14.0\vc\atlmfc\include\atltypes.h
;	COMDAT ?Height@CRect@@QBEHXZ
_TEXT	SEGMENT
?Height@CRect@@QBEHXZ PROC				; CRect::Height, COMDAT
; _this$ = ecx

; 581  : 	return bottom - top;

  00000	8b 41 0c	 mov	 eax, DWORD PTR [ecx+12]
  00003	2b 41 04	 sub	 eax, DWORD PTR [ecx+4]

; 582  : }

  00006	c3		 ret	 0
?Height@CRect@@QBEHXZ ENDP				; CRect::Height
_TEXT	ENDS
; Function compile flags: /Ogtp
; File d:\developer\microsoft visual studio 14.0\vc\atlmfc\include\atltypes.h
;	COMDAT ?Width@CRect@@QBEHXZ
_TEXT	SEGMENT
?Width@CRect@@QBEHXZ PROC				; CRect::Width, COMDAT
; _this$ = ecx

; 576  : 	return right - left;

  00000	8b 41 08	 mov	 eax, DWORD PTR [ecx+8]
  00003	2b 01		 sub	 eax, DWORD PTR [ecx]

; 577  : }

  00005	c3		 ret	 0
?Width@CRect@@QBEHXZ ENDP				; CRect::Width
_TEXT	ENDS
; Function compile flags: /Ogtp
; File d:\developer\microsoft visual studio 14.0\vc\atlmfc\include\atltypes.h
;	COMDAT ??0CRect@@QAE@XZ
_TEXT	SEGMENT
??0CRect@@QAE@XZ PROC					; CRect::CRect, COMDAT
; _this$ = ecx

; 528  : 	left = 0;

  00000	c7 01 00 00 00
	00		 mov	 DWORD PTR [ecx], 0

; 529  : 	top = 0;
; 530  : 	right = 0;
; 531  : 	bottom = 0;
; 532  : }

  00006	8b c1		 mov	 eax, ecx
  00008	c7 41 04 00 00
	00 00		 mov	 DWORD PTR [ecx+4], 0
  0000f	c7 41 08 00 00
	00 00		 mov	 DWORD PTR [ecx+8], 0
  00016	c7 41 0c 00 00
	00 00		 mov	 DWORD PTR [ecx+12], 0
  0001d	c3		 ret	 0
??0CRect@@QAE@XZ ENDP					; CRect::CRect
_TEXT	ENDS
; Function compile flags: /Ogtp
; File d:\developer\microsoft visual studio 14.0\vc\atlmfc\include\atltrace.h
;	COMDAT ?RegisterCategory@CTrace@ATL@@SAXPB_WI@Z
_TEXT	SEGMENT
_pszCategory$ = 8					; size = 4
_nCategory$ = 12					; size = 4
?RegisterCategory@CTrace@ATL@@SAXPB_WI@Z PROC		; ATL::CTrace::RegisterCategory, COMDAT

; 329  : 	{

  00000	55		 push	 ebp
  00001	8b ec		 mov	 ebp, esp

; 330  : 		if (pszCategory == nullptr)

  00003	8b 55 08	 mov	 edx, DWORD PTR _pszCategory$[ebp]
  00006	85 d2		 test	 edx, edx
  00008	74 5b		 je	 SHORT $LN1@RegisterCa

; 331  : 		{
; 332  : 			return;
; 333  : 		}
; 334  : 
; 335  : 		if (m_nLastCategory >= MaxCategoryArray) 

  0000a	a1 00 00 00 00	 mov	 eax, DWORD PTR ?m_nLastCategory@CTrace@ATL@@1IA ; ATL::CTrace::m_nLastCategory
  0000f	83 f8 20	 cmp	 eax, 32			; 00000020H
  00012	72 29		 jb	 SHORT $LN3@RegisterCa

; 336  : 		{
; 337  : 			ATLASSERT(false && "Too many categories defined");

  00014	68 00 00 00 00	 push	 OFFSET ??_C@_1EO@EBPPKGOM@?$AAf?$AAa?$AAl?$AAs?$AAe?$AA?5?$AA?$CG?$AA?$CG?$AA?5?$AA?$CC?$AAT?$AAo?$AAo?$AA?5?$AAm?$AAa?$AAn?$AAy?$AA?5?$AAc?$AAa?$AAt?$AAe?$AAg?$AAo?$AAr?$AAi?$AAe?$AAs?$AA?5?$AAd?$AAe@
  00019	68 00 00 00 00	 push	 OFFSET ??_C@_17CNPHIMPH@?$AA?$CF?$AAl?$AAs?$AA?$AA@
  0001e	6a 00		 push	 0
  00020	68 51 01 00 00	 push	 337			; 00000151H
  00025	68 00 00 00 00	 push	 OFFSET ??_C@_1IO@PCOKKAMF@?$AAd?$AA?3?$AA?2?$AAd?$AAe?$AAv?$AAe?$AAl?$AAo?$AAp?$AAe?$AAr?$AA?2?$AAm?$AAi?$AAc?$AAr?$AAo?$AAs?$AAo?$AAf?$AAt?$AA?5?$AAv?$AAi?$AAs?$AAu?$AAa?$AAl?$AA?5?$AAs?$AAt@
  0002a	6a 02		 push	 2
  0002c	ff 15 00 00 00
	00		 call	 DWORD PTR __imp___CrtDbgReportW
  00032	83 c4 18	 add	 esp, 24			; 00000018H
  00035	83 f8 01	 cmp	 eax, 1
  00038	75 2b		 jne	 SHORT $LN1@RegisterCa
  0003a	cc		 int	 3

; 355  : 	}

  0003b	5d		 pop	 ebp
  0003c	c3		 ret	 0
$LN3@RegisterCa:

; 338  : 			return;
; 339  : 		}
; 340  : 
; 341  : 		m_nMap[m_nLastCategory].nCategory = nCategory;

  0003d	69 c8 04 01 00
	00		 imul	 ecx, eax, 260
  00043	8b 45 0c	 mov	 eax, DWORD PTR _nCategory$[ebp]

; 342  : #ifdef _UNICODE
; 343  : 		wcscpy_s(m_nMap[m_nLastCategory].categryName, MaxLengthOfCategoryName - 1, pszCategory);

  00046	52		 push	 edx
  00047	6a 7f		 push	 127			; 0000007fH
  00049	89 81 00 00 00
	00		 mov	 DWORD PTR ?m_nMap@CTrace@ATL@@1PAUCategoryMap@12@A[ecx], eax
  0004f	8d 81 04 00 00
	00		 lea	 eax, DWORD PTR ?m_nMap@CTrace@ATL@@1PAUCategoryMap@12@A[ecx+4]
  00055	50		 push	 eax
  00056	ff 15 00 00 00
	00		 call	 DWORD PTR __imp__wcscpy_s
  0005c	83 c4 0c	 add	 esp, 12			; 0000000cH

; 344  : #else
; 345  : 		wchar_t buffer[MaxLengthOfCategoryName] = { 0 };	
; 346  : #if _MSC_VER < 1900
; 347  : 		swprintf_s(buffer, MaxLengthOfCategoryName - 1, L"%S", pszCategory);
; 348  : #else
; 349  : 		swprintf_s(buffer, MaxLengthOfCategoryName - 1, L"%hs", pszCategory);
; 350  : #endif
; 351  : 		wcscpy_s(m_nMap[m_nLastCategory].categryName, MaxLengthOfCategoryName - 1, buffer);
; 352  : #endif
; 353  : 	
; 354  : 		m_nLastCategory++;

  0005f	ff 05 00 00 00
	00		 inc	 DWORD PTR ?m_nLastCategory@CTrace@ATL@@1IA ; ATL::CTrace::m_nLastCategory
$LN1@RegisterCa:

; 355  : 	}

  00065	5d		 pop	 ebp
  00066	c3		 ret	 0
?RegisterCategory@CTrace@ATL@@SAXPB_WI@Z ENDP		; ATL::CTrace::RegisterCategory
_TEXT	ENDS
; Function compile flags: /Ogtp
; File d:\developer\microsoft visual studio 14.0\vc\atlmfc\include\atltrace.h
;	COMDAT ??__EatlTraceException@ATL@@YAXXZ
text$di	SEGMENT
??__EatlTraceException@ATL@@YAXXZ PROC			; ATL::`dynamic initializer for 'atlTraceException'', COMDAT

; 481  : 	CTrace::RegisterCategory(pszCategoryName, traceCategory);

  00000	68 00 20 00 00	 push	 8192			; 00002000H
  00005	68 00 00 00 00	 push	 OFFSET ??_C@_1CE@IMMADNAP@?$AAa?$AAt?$AAl?$AAT?$AAr?$AAa?$AAc?$AAe?$AAE?$AAx?$AAc?$AAe?$AAp?$AAt?$AAi?$AAo?$AAn?$AA?$AA@
  0000a	e8 00 00 00 00	 call	 ?RegisterCategory@CTrace@ATL@@SAXPB_WI@Z ; ATL::CTrace::RegisterCategory
  0000f	83 c4 08	 add	 esp, 8

; 110  : __declspec(selectany) CTraceCategoryEx<CTraceCategoryEx<>::TraceException> atlTraceException(_T("atlTraceException"));

  00012	c3		 ret	 0
??__EatlTraceException@ATL@@YAXXZ ENDP			; ATL::`dynamic initializer for 'atlTraceException''
text$di	ENDS
; Function compile flags: /Ogtp
; File d:\developer\microsoft visual studio 14.0\vc\atlmfc\include\atltrace.h
;	COMDAT ??0?$CTraceCategoryEx@$0CAAA@$0A@@ATL@@QAE@PB_W@Z
_TEXT	SEGMENT
_pszCategoryName$ = 8					; size = 4
??0?$CTraceCategoryEx@$0CAAA@$0A@@ATL@@QAE@PB_W@Z PROC	; ATL::CTraceCategoryEx<8192,0>::CTraceCategoryEx<8192,0>, COMDAT
; _this$ = ecx

; 480  : {

  00000	55		 push	 ebp
  00001	8b ec		 mov	 ebp, esp
  00003	56		 push	 esi

; 481  : 	CTrace::RegisterCategory(pszCategoryName, traceCategory);

  00004	68 00 20 00 00	 push	 8192			; 00002000H
  00009	ff 75 08	 push	 DWORD PTR _pszCategoryName$[ebp]
  0000c	8b f1		 mov	 esi, ecx
  0000e	e8 00 00 00 00	 call	 ?RegisterCategory@CTrace@ATL@@SAXPB_WI@Z ; ATL::CTrace::RegisterCategory
  00013	83 c4 08	 add	 esp, 8

; 482  : }

  00016	8b c6		 mov	 eax, esi
  00018	5e		 pop	 esi
  00019	5d		 pop	 ebp
  0001a	c2 04 00	 ret	 4
??0?$CTraceCategoryEx@$0CAAA@$0A@@ATL@@QAE@PB_W@Z ENDP	; ATL::CTraceCategoryEx<8192,0>::CTraceCategoryEx<8192,0>
_TEXT	ENDS
; Function compile flags: /Ogtp
; File d:\developer\microsoft visual studio 14.0\vc\atlmfc\include\afx.h
;	COMDAT ?AfxAssertFailedLine@@YGHPBDH@Z
_TEXT	SEGMENT
_msg$ = -32						; size = 28
__$ArrayPad$ = -4					; size = 4
_lpszFileName$ = 8					; size = 4
_nLine$ = 12						; size = 4
?AfxAssertFailedLine@@YGHPBDH@Z PROC			; AfxAssertFailedLine, COMDAT

; 328  : {

  00000	55		 push	 ebp
  00001	8b ec		 mov	 ebp, esp
  00003	83 ec 20	 sub	 esp, 32			; 00000020H
  00006	a1 00 00 00 00	 mov	 eax, DWORD PTR ___security_cookie
  0000b	33 c5		 xor	 eax, ebp
  0000d	89 45 fc	 mov	 DWORD PTR __$ArrayPad$[ebp], eax
  00010	56		 push	 esi
  00011	57		 push	 edi
  00012	8b 7d 08	 mov	 edi, DWORD PTR _lpszFileName$[ebp]

; 329  : 	// we remove WM_QUIT because if it is in the queue then the message box
; 330  : 	// won't display
; 331  : 	MSG msg;
; 332  : 	BOOL bQuit = PeekMessage(&msg, NULL, WM_QUIT, WM_QUIT, PM_REMOVE);

  00015	8d 45 e0	 lea	 eax, DWORD PTR _msg$[ebp]
  00018	6a 01		 push	 1
  0001a	6a 12		 push	 18			; 00000012H
  0001c	6a 12		 push	 18			; 00000012H
  0001e	6a 00		 push	 0
  00020	50		 push	 eax
  00021	ff 15 00 00 00
	00		 call	 DWORD PTR __imp__PeekMessageW@20

; 333  : 	BOOL bResult = _CrtDbgReport(_CRT_ASSERT, lpszFileName, nLine, NULL, NULL);

  00027	6a 00		 push	 0
  00029	6a 00		 push	 0
  0002b	ff 75 0c	 push	 DWORD PTR _nLine$[ebp]
  0002e	8b f0		 mov	 esi, eax
  00030	57		 push	 edi
  00031	6a 02		 push	 2
  00033	ff 15 00 00 00
	00		 call	 DWORD PTR __imp___CrtDbgReport
  00039	83 c4 14	 add	 esp, 20			; 00000014H
  0003c	8b f8		 mov	 edi, eax

; 334  : 	if (bQuit)

  0003e	85 f6		 test	 esi, esi
  00040	74 0b		 je	 SHORT $LN2@AfxAssertF

; 335  : 		PostQuitMessage((int)msg.wParam);

  00042	ff 75 e8	 push	 DWORD PTR _msg$[ebp+8]
  00045	ff 15 00 00 00
	00		 call	 DWORD PTR __imp__PostQuitMessage@4

; 336  : 	return bResult;

  0004b	8b c7		 mov	 eax, edi
$LN2@AfxAssertF:

; 337  : }

  0004d	8b 4d fc	 mov	 ecx, DWORD PTR __$ArrayPad$[ebp]
  00050	5f		 pop	 edi
  00051	33 cd		 xor	 ecx, ebp
  00053	5e		 pop	 esi
  00054	e8 00 00 00 00	 call	 @__security_check_cookie@4
  00059	8b e5		 mov	 esp, ebp
  0005b	5d		 pop	 ebp
  0005c	c2 08 00	 ret	 8
?AfxAssertFailedLine@@YGHPBDH@Z ENDP			; AfxAssertFailedLine
_TEXT	ENDS
; Function compile flags: /Ogtp
; File d:\study\数据结构与算法综合实验\连连看游戏\llkpro17.6.18\lianliankan\llkdlg.cpp
;	COMDAT ?__empty_global_delete@@YAXPAXI@Z
_TEXT	SEGMENT
___formal$ = 8						; size = 4
___formal$ = 12						; size = 4
?__empty_global_delete@@YAXPAXI@Z PROC			; __empty_global_delete, COMDAT

; 333  : }

  00000	c3		 ret	 0
?__empty_global_delete@@YAXPAXI@Z ENDP			; __empty_global_delete
_TEXT	ENDS
; Function compile flags: /Ogtp
; File d:\study\数据结构与算法综合实验\连连看游戏\llkpro17.6.18\lianliankan\llkdlg.cpp
;	COMDAT ?__empty_global_delete@@YAXPAX@Z
_TEXT	SEGMENT
___formal$ = 8						; size = 4
?__empty_global_delete@@YAXPAX@Z PROC			; __empty_global_delete, COMDAT

; 333  : }

  00000	c3		 ret	 0
?__empty_global_delete@@YAXPAX@Z ENDP			; __empty_global_delete
_TEXT	ENDS
END
